
Cerradura RFID.elf:     file format elf32-avr

Sections:
Idx Name          Size      VMA       LMA       File off  Algn
  0 .data         000003c4  00800100  00001c12  00001c86  2**0
                  CONTENTS, ALLOC, LOAD, DATA
  1 .text         00001c12  00000000  00000000  00000074  2**1
                  CONTENTS, ALLOC, LOAD, READONLY, CODE
  2 .comment      0000005c  00000000  00000000  0000204a  2**0
                  CONTENTS, READONLY
  3 .note.gnu.avr.deviceinfo 00000040  00000000  00000000  000020a8  2**2
                  CONTENTS, READONLY
  4 .debug_aranges 00000230  00000000  00000000  000020e8  2**3
                  CONTENTS, READONLY, DEBUGGING
  5 .debug_info   000038f9  00000000  00000000  00002318  2**0
                  CONTENTS, READONLY, DEBUGGING
  6 .debug_abbrev 00000cbb  00000000  00000000  00005c11  2**0
                  CONTENTS, READONLY, DEBUGGING
  7 .debug_line   00001672  00000000  00000000  000068cc  2**0
                  CONTENTS, READONLY, DEBUGGING
  8 .debug_frame  00000558  00000000  00000000  00007f40  2**2
                  CONTENTS, READONLY, DEBUGGING
  9 .debug_str    000007af  00000000  00000000  00008498  2**0
                  CONTENTS, READONLY, DEBUGGING
 10 .debug_loc    00001eb6  00000000  00000000  00008c47  2**0
                  CONTENTS, READONLY, DEBUGGING
 11 .debug_ranges 00000210  00000000  00000000  0000aafd  2**0
                  CONTENTS, READONLY, DEBUGGING

Disassembly of section .text:

00000000 <__vectors>:
       0:	0c 94 3a 00 	jmp	0x74	; 0x74 <__ctors_end>
       4:	0c 94 4f 00 	jmp	0x9e	; 0x9e <__bad_interrupt>
       8:	0c 94 4f 00 	jmp	0x9e	; 0x9e <__bad_interrupt>
       c:	0c 94 4f 00 	jmp	0x9e	; 0x9e <__bad_interrupt>
      10:	0c 94 4f 00 	jmp	0x9e	; 0x9e <__bad_interrupt>
      14:	0c 94 4f 00 	jmp	0x9e	; 0x9e <__bad_interrupt>
      18:	0c 94 4f 00 	jmp	0x9e	; 0x9e <__bad_interrupt>
      1c:	0c 94 4f 00 	jmp	0x9e	; 0x9e <__bad_interrupt>
      20:	0c 94 4f 00 	jmp	0x9e	; 0x9e <__bad_interrupt>
      24:	0c 94 4f 00 	jmp	0x9e	; 0x9e <__bad_interrupt>
      28:	0c 94 4f 00 	jmp	0x9e	; 0x9e <__bad_interrupt>
      2c:	0c 94 4f 00 	jmp	0x9e	; 0x9e <__bad_interrupt>
      30:	0c 94 4f 00 	jmp	0x9e	; 0x9e <__bad_interrupt>
      34:	0c 94 4f 00 	jmp	0x9e	; 0x9e <__bad_interrupt>
      38:	0c 94 4f 00 	jmp	0x9e	; 0x9e <__bad_interrupt>
      3c:	0c 94 4f 00 	jmp	0x9e	; 0x9e <__bad_interrupt>
      40:	0c 94 4f 00 	jmp	0x9e	; 0x9e <__bad_interrupt>
      44:	0c 94 4f 00 	jmp	0x9e	; 0x9e <__bad_interrupt>
      48:	0c 94 4f 00 	jmp	0x9e	; 0x9e <__bad_interrupt>
      4c:	0c 94 4f 00 	jmp	0x9e	; 0x9e <__bad_interrupt>
      50:	0c 94 4f 00 	jmp	0x9e	; 0x9e <__bad_interrupt>
      54:	0c 94 4f 00 	jmp	0x9e	; 0x9e <__bad_interrupt>
      58:	0c 94 4f 00 	jmp	0x9e	; 0x9e <__bad_interrupt>
      5c:	0c 94 4f 00 	jmp	0x9e	; 0x9e <__bad_interrupt>
      60:	0c 94 4f 00 	jmp	0x9e	; 0x9e <__bad_interrupt>
      64:	0c 94 4f 00 	jmp	0x9e	; 0x9e <__bad_interrupt>

00000068 <__trampolines_end>:
      68:	63 64       	ori	r22, 0x43	; 67
      6a:	69 6e       	ori	r22, 0xE9	; 233
      6c:	6f 70       	andi	r22, 0x0F	; 15
      6e:	73 75       	andi	r23, 0x53	; 83
      70:	78 58       	subi	r23, 0x88	; 136
      72:	5b 00       	.word	0x005b	; ????

00000074 <__ctors_end>:
      74:	11 24       	eor	r1, r1
      76:	1f be       	out	0x3f, r1	; 63
      78:	cf ef       	ldi	r28, 0xFF	; 255
      7a:	d8 e0       	ldi	r29, 0x08	; 8
      7c:	de bf       	out	0x3e, r29	; 62
      7e:	cd bf       	out	0x3d, r28	; 61

00000080 <__do_copy_data>:
      80:	14 e0       	ldi	r17, 0x04	; 4
      82:	a0 e0       	ldi	r26, 0x00	; 0
      84:	b1 e0       	ldi	r27, 0x01	; 1
      86:	e2 e1       	ldi	r30, 0x12	; 18
      88:	fc e1       	ldi	r31, 0x1C	; 28
      8a:	02 c0       	rjmp	.+4      	; 0x90 <__do_copy_data+0x10>
      8c:	05 90       	lpm	r0, Z+
      8e:	0d 92       	st	X+, r0
      90:	a4 3c       	cpi	r26, 0xC4	; 196
      92:	b1 07       	cpc	r27, r17
      94:	d9 f7       	brne	.-10     	; 0x8c <__do_copy_data+0xc>
      96:	0e 94 4c 04 	call	0x898	; 0x898 <main>
      9a:	0c 94 07 0e 	jmp	0x1c0e	; 0x1c0e <_exit>

0000009e <__bad_interrupt>:
      9e:	0c 94 00 00 	jmp	0	; 0x0 <__vectors>

000000a2 <twi_init>:
#define RS_BM (1<<0)
#define RW_BM (1<<1)
#define E_BM  (1<<2)
#define BL_BM (1<<3)

static void twi_init(void){ TWSR=0x00; TWBR=72; TWCR=(1<<TWEN); }
      a2:	10 92 b9 00 	sts	0x00B9, r1	; 0x8000b9 <__TEXT_REGION_LENGTH__+0x7f80b9>
      a6:	88 e4       	ldi	r24, 0x48	; 72
      a8:	80 93 b8 00 	sts	0x00B8, r24	; 0x8000b8 <__TEXT_REGION_LENGTH__+0x7f80b8>
      ac:	84 e0       	ldi	r24, 0x04	; 4
      ae:	80 93 bc 00 	sts	0x00BC, r24	; 0x8000bc <__TEXT_REGION_LENGTH__+0x7f80bc>
      b2:	08 95       	ret

000000b4 <twi_start>:
static void twi_start(void){ TWCR=(1<<TWINT)|(1<<TWSTA)|(1<<TWEN); while(!(TWCR&(1<<TWINT))); }
      b4:	84 ea       	ldi	r24, 0xA4	; 164
      b6:	80 93 bc 00 	sts	0x00BC, r24	; 0x8000bc <__TEXT_REGION_LENGTH__+0x7f80bc>
      ba:	80 91 bc 00 	lds	r24, 0x00BC	; 0x8000bc <__TEXT_REGION_LENGTH__+0x7f80bc>
      be:	88 23       	and	r24, r24
      c0:	e4 f7       	brge	.-8      	; 0xba <twi_start+0x6>
      c2:	08 95       	ret

000000c4 <twi_stop>:
static void twi_stop(void){  TWCR=(1<<TWINT)|(1<<TWEN)|(1<<TWSTO); }
      c4:	84 e9       	ldi	r24, 0x94	; 148
      c6:	80 93 bc 00 	sts	0x00BC, r24	; 0x8000bc <__TEXT_REGION_LENGTH__+0x7f80bc>
      ca:	08 95       	ret

000000cc <twi_write>:
static void twi_write(uint8_t d){ TWDR=d; TWCR=(1<<TWINT)|(1<<TWEN); while(!(TWCR&(1<<TWINT))); }
      cc:	80 93 bb 00 	sts	0x00BB, r24	; 0x8000bb <__TEXT_REGION_LENGTH__+0x7f80bb>
      d0:	84 e8       	ldi	r24, 0x84	; 132
      d2:	80 93 bc 00 	sts	0x00BC, r24	; 0x8000bc <__TEXT_REGION_LENGTH__+0x7f80bc>
      d6:	80 91 bc 00 	lds	r24, 0x00BC	; 0x8000bc <__TEXT_REGION_LENGTH__+0x7f80bc>
      da:	88 23       	and	r24, r24
      dc:	e4 f7       	brge	.-8      	; 0xd6 <twi_write+0xa>
      de:	08 95       	ret

000000e0 <pcf_write>:
static void pcf_write(uint8_t v){ twi_start(); twi_write(LCD_SLAW); twi_write(v); twi_stop(); }
      e0:	cf 93       	push	r28
      e2:	c8 2f       	mov	r28, r24
      e4:	0e 94 5a 00 	call	0xb4	; 0xb4 <twi_start>
      e8:	8e e4       	ldi	r24, 0x4E	; 78
      ea:	0e 94 66 00 	call	0xcc	; 0xcc <twi_write>
      ee:	8c 2f       	mov	r24, r28
      f0:	0e 94 66 00 	call	0xcc	; 0xcc <twi_write>
      f4:	0e 94 62 00 	call	0xc4	; 0xc4 <twi_stop>
      f8:	cf 91       	pop	r28
      fa:	08 95       	ret

000000fc <uid_len>:
}
static inline void led_rojo(uint8_t on){ if(on) PORTD |= (1<<LED_ROJO_PIN); else PORTD &= ~(1<<LED_ROJO_PIN); }
static inline void led_verde(uint8_t on){ if(on) PORTD |= (1<<LED_VERDE_PIN); else PORTD &= ~(1<<LED_VERDE_PIN); }

/* ===================== Helpers UID ===================== */
static uint8_t uid_len(const uint8_t *u, uint8_t max){ uint8_t n=0; while(n<max && u[n]!=0) n++; return n; }
      fc:	9c 01       	movw	r18, r24
      fe:	80 e0       	ldi	r24, 0x00	; 0
     100:	01 c0       	rjmp	.+2      	; 0x104 <uid_len+0x8>
     102:	8f 5f       	subi	r24, 0xFF	; 255
     104:	86 17       	cp	r24, r22
     106:	30 f4       	brcc	.+12     	; 0x114 <uid_len+0x18>
     108:	f9 01       	movw	r30, r18
     10a:	e8 0f       	add	r30, r24
     10c:	f1 1d       	adc	r31, r1
     10e:	90 81       	ld	r25, Z
     110:	91 11       	cpse	r25, r1
     112:	f7 cf       	rjmp	.-18     	; 0x102 <uid_len+0x6>
     114:	08 95       	ret

00000116 <uid_equal>:
static bool uid_equal(const uint8_t *a, const uint8_t *b, uint8_t n){
     116:	dc 01       	movw	r26, r24
	for(uint8_t i=0;i<n;i++) if(a[i]!=b[i]) return false; return true;
     118:	90 e0       	ldi	r25, 0x00	; 0
     11a:	0d c0       	rjmp	.+26     	; 0x136 <uid_equal+0x20>
     11c:	29 2f       	mov	r18, r25
     11e:	30 e0       	ldi	r19, 0x00	; 0
     120:	fd 01       	movw	r30, r26
     122:	e2 0f       	add	r30, r18
     124:	f3 1f       	adc	r31, r19
     126:	50 81       	ld	r21, Z
     128:	fb 01       	movw	r30, r22
     12a:	e2 0f       	add	r30, r18
     12c:	f3 1f       	adc	r31, r19
     12e:	20 81       	ld	r18, Z
     130:	52 13       	cpse	r21, r18
     132:	05 c0       	rjmp	.+10     	; 0x13e <uid_equal+0x28>
     134:	9f 5f       	subi	r25, 0xFF	; 255
     136:	94 17       	cp	r25, r20
     138:	88 f3       	brcs	.-30     	; 0x11c <uid_equal+0x6>
     13a:	81 e0       	ldi	r24, 0x01	; 1
     13c:	08 95       	ret
     13e:	80 e0       	ldi	r24, 0x00	; 0
}
     140:	08 95       	ret

00000142 <uart_expect_yes>:
		uart_print("  UID: ");
		for(uint8_t k=0;k<l;k++){ uint8_t b=eeprom_read_byte((uint8_t*)(a+1+k)); uart_print_hex(b); uart_send(' '); }
		uart_print("\r\n");
	}
}
static bool uart_expect_yes(void){
     142:	ef 92       	push	r14
     144:	ff 92       	push	r15
     146:	1f 93       	push	r17
     148:	cf 93       	push	r28
     14a:	df 93       	push	r29
     14c:	00 d0       	rcall	.+0      	; 0x14e <uart_expect_yes+0xc>
     14e:	00 d0       	rcall	.+0      	; 0x150 <uart_expect_yes+0xe>
     150:	cd b7       	in	r28, 0x3d	; 61
     152:	de b7       	in	r29, 0x3e	; 62
	uart_print("Confirme con YES\r\n");
     154:	80 e0       	ldi	r24, 0x00	; 0
     156:	91 e0       	ldi	r25, 0x01	; 1
     158:	0e 94 81 07 	call	0xf02	; 0xf02 <uart_print>
	char r[4]={0};
     15c:	19 82       	std	Y+1, r1	; 0x01
     15e:	1a 82       	std	Y+2, r1	; 0x02
     160:	1b 82       	std	Y+3, r1	; 0x03
     162:	1c 82       	std	Y+4, r1	; 0x04
	for(uint8_t i=0;i<3;i++){
     164:	10 e0       	ldi	r17, 0x00	; 0
     166:	18 c0       	rjmp	.+48     	; 0x198 <uart_expect_yes+0x56>
		r[i]=uart_receive();
     168:	e1 2e       	mov	r14, r17
     16a:	f1 2c       	mov	r15, r1
     16c:	0e 94 73 07 	call	0xee6	; 0xee6 <uart_receive>
     170:	e1 e0       	ldi	r30, 0x01	; 1
     172:	f0 e0       	ldi	r31, 0x00	; 0
     174:	ec 0f       	add	r30, r28
     176:	fd 1f       	adc	r31, r29
     178:	ee 0d       	add	r30, r14
     17a:	ff 1d       	adc	r31, r15
     17c:	80 83       	st	Z, r24
		if(r[i]=='\r' || r[i]=='\n'){ r[i]=0; break; }
     17e:	8d 30       	cpi	r24, 0x0D	; 13
     180:	11 f0       	breq	.+4      	; 0x186 <uart_expect_yes+0x44>
     182:	8a 30       	cpi	r24, 0x0A	; 10
     184:	41 f4       	brne	.+16     	; 0x196 <uart_expect_yes+0x54>
     186:	e1 e0       	ldi	r30, 0x01	; 1
     188:	f0 e0       	ldi	r31, 0x00	; 0
     18a:	ec 0f       	add	r30, r28
     18c:	fd 1f       	adc	r31, r29
     18e:	ee 0d       	add	r30, r14
     190:	ff 1d       	adc	r31, r15
     192:	10 82       	st	Z, r1
     194:	03 c0       	rjmp	.+6      	; 0x19c <uart_expect_yes+0x5a>
	}
}
static bool uart_expect_yes(void){
	uart_print("Confirme con YES\r\n");
	char r[4]={0};
	for(uint8_t i=0;i<3;i++){
     196:	1f 5f       	subi	r17, 0xFF	; 255
     198:	13 30       	cpi	r17, 0x03	; 3
     19a:	30 f3       	brcs	.-52     	; 0x168 <uart_expect_yes+0x26>
		r[i]=uart_receive();
		if(r[i]=='\r' || r[i]=='\n'){ r[i]=0; break; }
	}
	return (r[0]=='Y' && r[1]=='E' && r[2]=='S');
     19c:	89 81       	ldd	r24, Y+1	; 0x01
     19e:	89 35       	cpi	r24, 0x59	; 89
     1a0:	41 f4       	brne	.+16     	; 0x1b2 <uart_expect_yes+0x70>
     1a2:	8a 81       	ldd	r24, Y+2	; 0x02
     1a4:	85 34       	cpi	r24, 0x45	; 69
     1a6:	39 f4       	brne	.+14     	; 0x1b6 <uart_expect_yes+0x74>
     1a8:	8b 81       	ldd	r24, Y+3	; 0x03
     1aa:	83 35       	cpi	r24, 0x53	; 83
     1ac:	31 f0       	breq	.+12     	; 0x1ba <uart_expect_yes+0x78>
     1ae:	80 e0       	ldi	r24, 0x00	; 0
     1b0:	05 c0       	rjmp	.+10     	; 0x1bc <uart_expect_yes+0x7a>
     1b2:	80 e0       	ldi	r24, 0x00	; 0
     1b4:	03 c0       	rjmp	.+6      	; 0x1bc <uart_expect_yes+0x7a>
     1b6:	80 e0       	ldi	r24, 0x00	; 0
     1b8:	01 c0       	rjmp	.+2      	; 0x1bc <uart_expect_yes+0x7a>
     1ba:	81 e0       	ldi	r24, 0x01	; 1
}
     1bc:	0f 90       	pop	r0
     1be:	0f 90       	pop	r0
     1c0:	0f 90       	pop	r0
     1c2:	0f 90       	pop	r0
     1c4:	df 91       	pop	r29
     1c6:	cf 91       	pop	r28
     1c8:	1f 91       	pop	r17
     1ca:	ff 90       	pop	r15
     1cc:	ef 90       	pop	r14
     1ce:	08 95       	ret

000001d0 <lcd_send_nibble>:
static void twi_start(void){ TWCR=(1<<TWINT)|(1<<TWSTA)|(1<<TWEN); while(!(TWCR&(1<<TWINT))); }
static void twi_stop(void){  TWCR=(1<<TWINT)|(1<<TWEN)|(1<<TWSTO); }
static void twi_write(uint8_t d){ TWDR=d; TWCR=(1<<TWINT)|(1<<TWEN); while(!(TWCR&(1<<TWINT))); }
static void pcf_write(uint8_t v){ twi_start(); twi_write(LCD_SLAW); twi_write(v); twi_stop(); }

static void lcd_send_nibble(uint8_t nib, uint8_t rs){
     1d0:	cf 93       	push	r28
     1d2:	df 93       	push	r29
	uint8_t out=((nib&0x0F)<<4)|rs|BL_BM;
     1d4:	20 e1       	ldi	r18, 0x10	; 16
     1d6:	82 9f       	mul	r24, r18
     1d8:	c0 01       	movw	r24, r0
     1da:	11 24       	eor	r1, r1
     1dc:	c6 2f       	mov	r28, r22
     1de:	c8 2b       	or	r28, r24
     1e0:	dc 2f       	mov	r29, r28
     1e2:	d8 60       	ori	r29, 0x08	; 8
	pcf_write(out); _delay_us(1);
     1e4:	8d 2f       	mov	r24, r29
     1e6:	0e 94 70 00 	call	0xe0	; 0xe0 <pcf_write>
	#else
		//round up by default
		__ticks_dc = (uint32_t)(ceil(fabs(__tmp)));
	#endif

	__builtin_avr_delay_cycles(__ticks_dc);
     1ea:	85 e0       	ldi	r24, 0x05	; 5
     1ec:	8a 95       	dec	r24
     1ee:	f1 f7       	brne	.-4      	; 0x1ec <lcd_send_nibble+0x1c>
     1f0:	00 00       	nop
	pcf_write(out|E_BM); _delay_us(1);
     1f2:	8c 2f       	mov	r24, r28
     1f4:	8c 60       	ori	r24, 0x0C	; 12
     1f6:	0e 94 70 00 	call	0xe0	; 0xe0 <pcf_write>
     1fa:	25 e0       	ldi	r18, 0x05	; 5
     1fc:	2a 95       	dec	r18
     1fe:	f1 f7       	brne	.-4      	; 0x1fc <lcd_send_nibble+0x2c>
     200:	00 00       	nop
	pcf_write(out); _delay_us(40);
     202:	8d 2f       	mov	r24, r29
     204:	0e 94 70 00 	call	0xe0	; 0xe0 <pcf_write>
     208:	85 ed       	ldi	r24, 0xD5	; 213
     20a:	8a 95       	dec	r24
     20c:	f1 f7       	brne	.-4      	; 0x20a <lcd_send_nibble+0x3a>
     20e:	00 00       	nop
}
     210:	df 91       	pop	r29
     212:	cf 91       	pop	r28
     214:	08 95       	ret

00000216 <lcd_write_byte>:
static void lcd_write_byte(uint8_t v, uint8_t rs){ lcd_send_nibble(v>>4,rs); lcd_send_nibble(v&0x0F,rs); }
     216:	cf 93       	push	r28
     218:	df 93       	push	r29
     21a:	c8 2f       	mov	r28, r24
     21c:	d6 2f       	mov	r29, r22
     21e:	82 95       	swap	r24
     220:	8f 70       	andi	r24, 0x0F	; 15
     222:	0e 94 e8 00 	call	0x1d0	; 0x1d0 <lcd_send_nibble>
     226:	6d 2f       	mov	r22, r29
     228:	8c 2f       	mov	r24, r28
     22a:	8f 70       	andi	r24, 0x0F	; 15
     22c:	0e 94 e8 00 	call	0x1d0	; 0x1d0 <lcd_send_nibble>
     230:	df 91       	pop	r29
     232:	cf 91       	pop	r28
     234:	08 95       	ret

00000236 <lcd_cmd>:
static void lcd_cmd(uint8_t c){ lcd_write_byte(c,0); if(c==0x01||c==0x02)_delay_ms(2); else _delay_us(50); }
     236:	cf 93       	push	r28
     238:	c8 2f       	mov	r28, r24
     23a:	60 e0       	ldi	r22, 0x00	; 0
     23c:	0e 94 0b 01 	call	0x216	; 0x216 <lcd_write_byte>
     240:	c1 50       	subi	r28, 0x01	; 1
     242:	c2 30       	cpi	r28, 0x02	; 2
     244:	38 f4       	brcc	.+14     	; 0x254 <lcd_cmd+0x1e>
	#else
		//round up by default
		__ticks_dc = (uint32_t)(ceil(fabs(__tmp)));
	#endif

	__builtin_avr_delay_cycles(__ticks_dc);
     246:	8f e3       	ldi	r24, 0x3F	; 63
     248:	9f e1       	ldi	r25, 0x1F	; 31
     24a:	01 97       	sbiw	r24, 0x01	; 1
     24c:	f1 f7       	brne	.-4      	; 0x24a <lcd_cmd+0x14>
     24e:	00 c0       	rjmp	.+0      	; 0x250 <lcd_cmd+0x1a>
     250:	00 00       	nop
     252:	06 c0       	rjmp	.+12     	; 0x260 <lcd_cmd+0x2a>
	#else
		//round up by default
		__ticks_dc = (uint32_t)(ceil(fabs(__tmp)));
	#endif

	__builtin_avr_delay_cycles(__ticks_dc);
     254:	87 ec       	ldi	r24, 0xC7	; 199
     256:	90 e0       	ldi	r25, 0x00	; 0
     258:	01 97       	sbiw	r24, 0x01	; 1
     25a:	f1 f7       	brne	.-4      	; 0x258 <lcd_cmd+0x22>
     25c:	00 c0       	rjmp	.+0      	; 0x25e <lcd_cmd+0x28>
     25e:	00 00       	nop
     260:	cf 91       	pop	r28
     262:	08 95       	ret

00000264 <lcd_set_cursor>:
static void lcd_data(uint8_t d){ lcd_write_byte(d,RS_BM); _delay_us(50); }
static void lcd_set_cursor(uint8_t r,uint8_t c){ lcd_cmd(0x80 | ((r?0x40:0x00)+c)); }
     264:	88 23       	and	r24, r24
     266:	11 f0       	breq	.+4      	; 0x26c <lcd_set_cursor+0x8>
     268:	80 e4       	ldi	r24, 0x40	; 64
     26a:	01 c0       	rjmp	.+2      	; 0x26e <lcd_set_cursor+0xa>
     26c:	80 e0       	ldi	r24, 0x00	; 0
     26e:	86 0f       	add	r24, r22
     270:	80 68       	ori	r24, 0x80	; 128
     272:	0e 94 1b 01 	call	0x236	; 0x236 <lcd_cmd>
     276:	08 95       	ret

00000278 <lcd_clear>:
static void lcd_print(const char*s){ while(*s) lcd_data((uint8_t)*s++); }
static void lcd_clear(void){ lcd_cmd(0x01); }
     278:	81 e0       	ldi	r24, 0x01	; 1
     27a:	0e 94 1b 01 	call	0x236	; 0x236 <lcd_cmd>
     27e:	08 95       	ret

00000280 <lcd_data>:
	pcf_write(out|E_BM); _delay_us(1);
	pcf_write(out); _delay_us(40);
}
static void lcd_write_byte(uint8_t v, uint8_t rs){ lcd_send_nibble(v>>4,rs); lcd_send_nibble(v&0x0F,rs); }
static void lcd_cmd(uint8_t c){ lcd_write_byte(c,0); if(c==0x01||c==0x02)_delay_ms(2); else _delay_us(50); }
static void lcd_data(uint8_t d){ lcd_write_byte(d,RS_BM); _delay_us(50); }
     280:	61 e0       	ldi	r22, 0x01	; 1
     282:	0e 94 0b 01 	call	0x216	; 0x216 <lcd_write_byte>
     286:	87 ec       	ldi	r24, 0xC7	; 199
     288:	90 e0       	ldi	r25, 0x00	; 0
     28a:	01 97       	sbiw	r24, 0x01	; 1
     28c:	f1 f7       	brne	.-4      	; 0x28a <lcd_data+0xa>
     28e:	00 c0       	rjmp	.+0      	; 0x290 <lcd_data+0x10>
     290:	00 00       	nop
     292:	08 95       	ret

00000294 <lcd_print>:
static void lcd_set_cursor(uint8_t r,uint8_t c){ lcd_cmd(0x80 | ((r?0x40:0x00)+c)); }
static void lcd_print(const char*s){ while(*s) lcd_data((uint8_t)*s++); }
     294:	cf 93       	push	r28
     296:	df 93       	push	r29
     298:	ec 01       	movw	r28, r24
     29a:	03 c0       	rjmp	.+6      	; 0x2a2 <lcd_print+0xe>
     29c:	21 96       	adiw	r28, 0x01	; 1
     29e:	0e 94 40 01 	call	0x280	; 0x280 <lcd_data>
     2a2:	88 81       	ld	r24, Y
     2a4:	81 11       	cpse	r24, r1
     2a6:	fa cf       	rjmp	.-12     	; 0x29c <lcd_print+0x8>
     2a8:	df 91       	pop	r29
     2aa:	cf 91       	pop	r28
     2ac:	08 95       	ret

000002ae <lcd_print_at>:
	lcd_send_nibble(0x03,0); _delay_ms(1);
	lcd_send_nibble(0x03,0); _delay_us(150);
	lcd_send_nibble(0x02,0); _delay_us(150);
	lcd_cmd(0x28); lcd_cmd(0x08); lcd_cmd(0x01); lcd_cmd(0x06); lcd_cmd(0x0C);
}
static void lcd_print_at(uint8_t r,uint8_t c,const char* s){ lcd_set_cursor(r,c); lcd_print(s); }
     2ae:	cf 93       	push	r28
     2b0:	df 93       	push	r29
     2b2:	ea 01       	movw	r28, r20
     2b4:	0e 94 32 01 	call	0x264	; 0x264 <lcd_set_cursor>
     2b8:	ce 01       	movw	r24, r28
     2ba:	0e 94 4a 01 	call	0x294	; 0x294 <lcd_print>
     2be:	df 91       	pop	r29
     2c0:	cf 91       	pop	r28
     2c2:	08 95       	ret

000002c4 <ui_idle>:
	}
}

/* ===================== UI helpers ===================== */
static void ui_idle(void){
	lcd_clear();
     2c4:	0e 94 3c 01 	call	0x278	; 0x278 <lcd_clear>
	lcd_print_at(0,0,"Acerque tarjeta ");
     2c8:	43 e1       	ldi	r20, 0x13	; 19
     2ca:	51 e0       	ldi	r21, 0x01	; 1
     2cc:	60 e0       	ldi	r22, 0x00	; 0
     2ce:	80 e0       	ldi	r24, 0x00	; 0
     2d0:	0e 94 57 01 	call	0x2ae	; 0x2ae <lcd_print_at>
	lcd_print_at(1,0,"Prog: mant D2   ");
     2d4:	44 e2       	ldi	r20, 0x24	; 36
     2d6:	51 e0       	ldi	r21, 0x01	; 1
     2d8:	60 e0       	ldi	r22, 0x00	; 0
     2da:	81 e0       	ldi	r24, 0x01	; 1
     2dc:	0e 94 57 01 	call	0x2ae	; 0x2ae <lcd_print_at>
			return (t >= BTN_LONG_MS);
		}
	}
	return 0;
}
static inline void led_rojo(uint8_t on){ if(on) PORTD |= (1<<LED_ROJO_PIN); else PORTD &= ~(1<<LED_ROJO_PIN); }
     2e0:	8b b1       	in	r24, 0x0b	; 11
     2e2:	80 61       	ori	r24, 0x10	; 16
     2e4:	8b b9       	out	0x0b, r24	; 11
static inline void led_verde(uint8_t on){ if(on) PORTD |= (1<<LED_VERDE_PIN); else PORTD &= ~(1<<LED_VERDE_PIN); }
     2e6:	8b b1       	in	r24, 0x0b	; 11
     2e8:	8f 7d       	andi	r24, 0xDF	; 223
     2ea:	8b b9       	out	0x0b, r24	; 11
     2ec:	08 95       	ret

000002ee <ui_prog_menu>:
	lcd_print_at(0,0,"Acerque tarjeta ");
	lcd_print_at(1,0,"Prog: mant D2   ");
	led_rojo(1); led_verde(0);
}
static void ui_prog_menu(void){
	lcd_clear();
     2ee:	0e 94 3c 01 	call	0x278	; 0x278 <lcd_clear>
	lcd_print_at(0,0,"MODO PROG");
     2f2:	45 e3       	ldi	r20, 0x35	; 53
     2f4:	51 e0       	ldi	r21, 0x01	; 1
     2f6:	60 e0       	ldi	r22, 0x00	; 0
     2f8:	80 e0       	ldi	r24, 0x00	; 0
     2fa:	0e 94 57 01 	call	0x2ae	; 0x2ae <lcd_print_at>
	lcd_print_at(1,0,"ADD=D3  DEL=D6  ");
     2fe:	4f e3       	ldi	r20, 0x3F	; 63
     300:	51 e0       	ldi	r21, 0x01	; 1
     302:	60 e0       	ldi	r22, 0x00	; 0
     304:	81 e0       	ldi	r24, 0x01	; 1
     306:	0e 94 57 01 	call	0x2ae	; 0x2ae <lcd_print_at>
			return (t >= BTN_LONG_MS);
		}
	}
	return 0;
}
static inline void led_rojo(uint8_t on){ if(on) PORTD |= (1<<LED_ROJO_PIN); else PORTD &= ~(1<<LED_ROJO_PIN); }
     30a:	8b b1       	in	r24, 0x0b	; 11
     30c:	8f 7e       	andi	r24, 0xEF	; 239
     30e:	8b b9       	out	0x0b, r24	; 11
static inline void led_verde(uint8_t on){ if(on) PORTD |= (1<<LED_VERDE_PIN); else PORTD &= ~(1<<LED_VERDE_PIN); }
     310:	8b b1       	in	r24, 0x0b	; 11
     312:	8f 7d       	andi	r24, 0xDF	; 223
     314:	8b b9       	out	0x0b, r24	; 11
     316:	08 95       	ret

00000318 <lcd_init>:
	#else
		//round up by default
		__ticks_dc = (uint32_t)(ceil(fabs(__tmp)));
	#endif

	__builtin_avr_delay_cycles(__ticks_dc);
     318:	2f ef       	ldi	r18, 0xFF	; 255
     31a:	89 ef       	ldi	r24, 0xF9	; 249
     31c:	90 e0       	ldi	r25, 0x00	; 0
     31e:	21 50       	subi	r18, 0x01	; 1
     320:	80 40       	sbci	r24, 0x00	; 0
     322:	90 40       	sbci	r25, 0x00	; 0
     324:	e1 f7       	brne	.-8      	; 0x31e <lcd_init+0x6>
     326:	00 c0       	rjmp	.+0      	; 0x328 <lcd_init+0x10>
     328:	00 00       	nop
static void lcd_set_cursor(uint8_t r,uint8_t c){ lcd_cmd(0x80 | ((r?0x40:0x00)+c)); }
static void lcd_print(const char*s){ while(*s) lcd_data((uint8_t)*s++); }
static void lcd_clear(void){ lcd_cmd(0x01); }
static void lcd_init(void){
	_delay_ms(20);
	lcd_send_nibble(0x03,0); _delay_ms(5);
     32a:	60 e0       	ldi	r22, 0x00	; 0
     32c:	83 e0       	ldi	r24, 0x03	; 3
     32e:	0e 94 e8 00 	call	0x1d0	; 0x1d0 <lcd_send_nibble>
     332:	8f e1       	ldi	r24, 0x1F	; 31
     334:	9e e4       	ldi	r25, 0x4E	; 78
     336:	01 97       	sbiw	r24, 0x01	; 1
     338:	f1 f7       	brne	.-4      	; 0x336 <lcd_init+0x1e>
     33a:	00 c0       	rjmp	.+0      	; 0x33c <lcd_init+0x24>
     33c:	00 00       	nop
	lcd_send_nibble(0x03,0); _delay_ms(1);
     33e:	60 e0       	ldi	r22, 0x00	; 0
     340:	83 e0       	ldi	r24, 0x03	; 3
     342:	0e 94 e8 00 	call	0x1d0	; 0x1d0 <lcd_send_nibble>
     346:	8f e9       	ldi	r24, 0x9F	; 159
     348:	9f e0       	ldi	r25, 0x0F	; 15
     34a:	01 97       	sbiw	r24, 0x01	; 1
     34c:	f1 f7       	brne	.-4      	; 0x34a <lcd_init+0x32>
     34e:	00 c0       	rjmp	.+0      	; 0x350 <lcd_init+0x38>
     350:	00 00       	nop
	lcd_send_nibble(0x03,0); _delay_us(150);
     352:	60 e0       	ldi	r22, 0x00	; 0
     354:	83 e0       	ldi	r24, 0x03	; 3
     356:	0e 94 e8 00 	call	0x1d0	; 0x1d0 <lcd_send_nibble>
	#else
		//round up by default
		__ticks_dc = (uint32_t)(ceil(fabs(__tmp)));
	#endif

	__builtin_avr_delay_cycles(__ticks_dc);
     35a:	87 e5       	ldi	r24, 0x57	; 87
     35c:	92 e0       	ldi	r25, 0x02	; 2
     35e:	01 97       	sbiw	r24, 0x01	; 1
     360:	f1 f7       	brne	.-4      	; 0x35e <lcd_init+0x46>
     362:	00 c0       	rjmp	.+0      	; 0x364 <lcd_init+0x4c>
     364:	00 00       	nop
	lcd_send_nibble(0x02,0); _delay_us(150);
     366:	60 e0       	ldi	r22, 0x00	; 0
     368:	82 e0       	ldi	r24, 0x02	; 2
     36a:	0e 94 e8 00 	call	0x1d0	; 0x1d0 <lcd_send_nibble>
     36e:	87 e5       	ldi	r24, 0x57	; 87
     370:	92 e0       	ldi	r25, 0x02	; 2
     372:	01 97       	sbiw	r24, 0x01	; 1
     374:	f1 f7       	brne	.-4      	; 0x372 <lcd_init+0x5a>
     376:	00 c0       	rjmp	.+0      	; 0x378 <lcd_init+0x60>
     378:	00 00       	nop
	lcd_cmd(0x28); lcd_cmd(0x08); lcd_cmd(0x01); lcd_cmd(0x06); lcd_cmd(0x0C);
     37a:	88 e2       	ldi	r24, 0x28	; 40
     37c:	0e 94 1b 01 	call	0x236	; 0x236 <lcd_cmd>
     380:	88 e0       	ldi	r24, 0x08	; 8
     382:	0e 94 1b 01 	call	0x236	; 0x236 <lcd_cmd>
     386:	81 e0       	ldi	r24, 0x01	; 1
     388:	0e 94 1b 01 	call	0x236	; 0x236 <lcd_cmd>
     38c:	86 e0       	ldi	r24, 0x06	; 6
     38e:	0e 94 1b 01 	call	0x236	; 0x236 <lcd_cmd>
     392:	8c e0       	ldi	r24, 0x0C	; 12
     394:	0e 94 1b 01 	call	0x236	; 0x236 <lcd_cmd>
     398:	08 95       	ret

0000039a <delay_ms_var>:
}
static void lcd_print_at(uint8_t r,uint8_t c,const char* s){ lcd_set_cursor(r,c); lcd_print(s); }

/* ===================== Delays variables (fix _delay_ms) ===================== */
static void delay_ms_var(uint16_t ms){
	while(ms--) _delay_ms(1);
     39a:	07 c0       	rjmp	.+14     	; 0x3aa <delay_ms_var+0x10>
	#else
		//round up by default
		__ticks_dc = (uint32_t)(ceil(fabs(__tmp)));
	#endif

	__builtin_avr_delay_cycles(__ticks_dc);
     39c:	8f e9       	ldi	r24, 0x9F	; 159
     39e:	9f e0       	ldi	r25, 0x0F	; 15
     3a0:	01 97       	sbiw	r24, 0x01	; 1
     3a2:	f1 f7       	brne	.-4      	; 0x3a0 <delay_ms_var+0x6>
     3a4:	00 c0       	rjmp	.+0      	; 0x3a6 <delay_ms_var+0xc>
     3a6:	00 00       	nop
     3a8:	c9 01       	movw	r24, r18
     3aa:	9c 01       	movw	r18, r24
     3ac:	21 50       	subi	r18, 0x01	; 1
     3ae:	31 09       	sbc	r19, r1
     3b0:	89 2b       	or	r24, r25
     3b2:	a1 f7       	brne	.-24     	; 0x39c <delay_ms_var+0x2>
}
     3b4:	08 95       	ret

000003b6 <ui_msg>:
	lcd_clear();
	lcd_print_at(0,0,"MODO PROG");
	lcd_print_at(1,0,"ADD=D3  DEL=D6  ");
	led_rojo(0); led_verde(0);
}
static void ui_msg(const char *l1, const char *l2, uint16_t ms){
     3b6:	ef 92       	push	r14
     3b8:	ff 92       	push	r15
     3ba:	0f 93       	push	r16
     3bc:	1f 93       	push	r17
     3be:	cf 93       	push	r28
     3c0:	df 93       	push	r29
     3c2:	7c 01       	movw	r14, r24
     3c4:	8b 01       	movw	r16, r22
     3c6:	ea 01       	movw	r28, r20
	lcd_clear(); lcd_print_at(0,0,l1); lcd_print_at(1,0,l2);
     3c8:	0e 94 3c 01 	call	0x278	; 0x278 <lcd_clear>
     3cc:	a7 01       	movw	r20, r14
     3ce:	60 e0       	ldi	r22, 0x00	; 0
     3d0:	80 e0       	ldi	r24, 0x00	; 0
     3d2:	0e 94 57 01 	call	0x2ae	; 0x2ae <lcd_print_at>
     3d6:	a8 01       	movw	r20, r16
     3d8:	60 e0       	ldi	r22, 0x00	; 0
     3da:	81 e0       	ldi	r24, 0x01	; 1
     3dc:	0e 94 57 01 	call	0x2ae	; 0x2ae <lcd_print_at>
	if(ms){ delay_ms_var(ms); }
     3e0:	20 97       	sbiw	r28, 0x00	; 0
     3e2:	19 f0       	breq	.+6      	; 0x3ea <ui_msg+0x34>
     3e4:	ce 01       	movw	r24, r28
     3e6:	0e 94 cd 01 	call	0x39a	; 0x39a <delay_ms_var>
}
     3ea:	df 91       	pop	r29
     3ec:	cf 91       	pop	r28
     3ee:	1f 91       	pop	r17
     3f0:	0f 91       	pop	r16
     3f2:	ff 90       	pop	r15
     3f4:	ef 90       	pop	r14
     3f6:	08 95       	ret

000003f8 <btn_was_pressed>:
	PORTD |=  (1<<BTN_PROG_PIN)|(1<<BTN_ADD_PIN)|(1<<BTN_DEL_PIN);
	// LEDs: salida
	DDRD |= (1<<LED_ROJO_PIN)|(1<<LED_VERDE_PIN);
	PORTD &= ~((1<<LED_ROJO_PIN)|(1<<LED_VERDE_PIN));
}
static inline uint8_t btn_read(uint8_t bit){ return (PIND & (1<<bit))?1:0; } // 1=libre, 0=apretado
     3f8:	29 b1       	in	r18, 0x09	; 9
     3fa:	48 2f       	mov	r20, r24
     3fc:	30 e0       	ldi	r19, 0x00	; 0
     3fe:	08 2e       	mov	r0, r24
     400:	02 c0       	rjmp	.+4      	; 0x406 <__EEPROM_REGION_LENGTH__+0x6>
     402:	35 95       	asr	r19
     404:	27 95       	ror	r18
     406:	0a 94       	dec	r0
     408:	e2 f7       	brpl	.-8      	; 0x402 <__EEPROM_REGION_LENGTH__+0x2>
static uint8_t btn_was_pressed(uint8_t bit){
	if(!btn_read(bit)){
     40a:	20 fd       	sbrc	r18, 0
     40c:	28 c0       	rjmp	.+80     	; 0x45e <__EEPROM_REGION_LENGTH__+0x5e>
     40e:	2f ef       	ldi	r18, 0xFF	; 255
     410:	36 e7       	ldi	r19, 0x76	; 118
     412:	61 e0       	ldi	r22, 0x01	; 1
     414:	21 50       	subi	r18, 0x01	; 1
     416:	30 40       	sbci	r19, 0x00	; 0
     418:	60 40       	sbci	r22, 0x00	; 0
     41a:	e1 f7       	brne	.-8      	; 0x414 <__EEPROM_REGION_LENGTH__+0x14>
     41c:	00 c0       	rjmp	.+0      	; 0x41e <__EEPROM_REGION_LENGTH__+0x1e>
     41e:	00 00       	nop
	PORTD |=  (1<<BTN_PROG_PIN)|(1<<BTN_ADD_PIN)|(1<<BTN_DEL_PIN);
	// LEDs: salida
	DDRD |= (1<<LED_ROJO_PIN)|(1<<LED_VERDE_PIN);
	PORTD &= ~((1<<LED_ROJO_PIN)|(1<<LED_VERDE_PIN));
}
static inline uint8_t btn_read(uint8_t bit){ return (PIND & (1<<bit))?1:0; } // 1=libre, 0=apretado
     420:	29 b1       	in	r18, 0x09	; 9
     422:	30 e0       	ldi	r19, 0x00	; 0
     424:	b9 01       	movw	r22, r18
     426:	02 c0       	rjmp	.+4      	; 0x42c <__EEPROM_REGION_LENGTH__+0x2c>
     428:	75 95       	asr	r23
     42a:	67 95       	ror	r22
     42c:	8a 95       	dec	r24
     42e:	e2 f7       	brpl	.-8      	; 0x428 <__EEPROM_REGION_LENGTH__+0x28>
static uint8_t btn_was_pressed(uint8_t bit){
	if(!btn_read(bit)){
		_delay_ms(BTN_DEBOUNCE_MS);
		if(!btn_read(bit)){
     430:	60 fd       	sbrc	r22, 0
     432:	17 c0       	rjmp	.+46     	; 0x462 <__EEPROM_REGION_LENGTH__+0x62>
	PORTD |=  (1<<BTN_PROG_PIN)|(1<<BTN_ADD_PIN)|(1<<BTN_DEL_PIN);
	// LEDs: salida
	DDRD |= (1<<LED_ROJO_PIN)|(1<<LED_VERDE_PIN);
	PORTD &= ~((1<<LED_ROJO_PIN)|(1<<LED_VERDE_PIN));
}
static inline uint8_t btn_read(uint8_t bit){ return (PIND & (1<<bit))?1:0; } // 1=libre, 0=apretado
     434:	89 b1       	in	r24, 0x09	; 9
     436:	90 e0       	ldi	r25, 0x00	; 0
     438:	04 2e       	mov	r0, r20
     43a:	02 c0       	rjmp	.+4      	; 0x440 <__EEPROM_REGION_LENGTH__+0x40>
     43c:	95 95       	asr	r25
     43e:	87 95       	ror	r24
     440:	0a 94       	dec	r0
     442:	e2 f7       	brpl	.-8      	; 0x43c <__EEPROM_REGION_LENGTH__+0x3c>
static uint8_t btn_was_pressed(uint8_t bit){
	if(!btn_read(bit)){
		_delay_ms(BTN_DEBOUNCE_MS);
		if(!btn_read(bit)){
			while(!btn_read(bit)){}
     444:	80 ff       	sbrs	r24, 0
     446:	f6 cf       	rjmp	.-20     	; 0x434 <__EEPROM_REGION_LENGTH__+0x34>
     448:	7f ef       	ldi	r23, 0xFF	; 255
     44a:	86 e7       	ldi	r24, 0x76	; 118
     44c:	91 e0       	ldi	r25, 0x01	; 1
     44e:	71 50       	subi	r23, 0x01	; 1
     450:	80 40       	sbci	r24, 0x00	; 0
     452:	90 40       	sbci	r25, 0x00	; 0
     454:	e1 f7       	brne	.-8      	; 0x44e <__EEPROM_REGION_LENGTH__+0x4e>
     456:	00 c0       	rjmp	.+0      	; 0x458 <__EEPROM_REGION_LENGTH__+0x58>
     458:	00 00       	nop
			_delay_ms(BTN_DEBOUNCE_MS);
			return 1;
     45a:	81 e0       	ldi	r24, 0x01	; 1
     45c:	08 95       	ret
		}
	}
	return 0;
     45e:	80 e0       	ldi	r24, 0x00	; 0
     460:	08 95       	ret
     462:	80 e0       	ldi	r24, 0x00	; 0
}
     464:	08 95       	ret

00000466 <btn_long_press>:
	PORTD |=  (1<<BTN_PROG_PIN)|(1<<BTN_ADD_PIN)|(1<<BTN_DEL_PIN);
	// LEDs: salida
	DDRD |= (1<<LED_ROJO_PIN)|(1<<LED_VERDE_PIN);
	PORTD &= ~((1<<LED_ROJO_PIN)|(1<<LED_VERDE_PIN));
}
static inline uint8_t btn_read(uint8_t bit){ return (PIND & (1<<bit))?1:0; } // 1=libre, 0=apretado
     466:	29 b1       	in	r18, 0x09	; 9
     468:	48 2f       	mov	r20, r24
     46a:	30 e0       	ldi	r19, 0x00	; 0
     46c:	08 2e       	mov	r0, r24
     46e:	02 c0       	rjmp	.+4      	; 0x474 <btn_long_press+0xe>
     470:	35 95       	asr	r19
     472:	27 95       	ror	r18
     474:	0a 94       	dec	r0
     476:	e2 f7       	brpl	.-8      	; 0x470 <btn_long_press+0xa>
		}
	}
	return 0;
}
static uint8_t btn_long_press(uint8_t bit){
	if(!btn_read(bit)){
     478:	20 fd       	sbrc	r18, 0
     47a:	47 c0       	rjmp	.+142    	; 0x50a <btn_long_press+0xa4>
     47c:	2f ef       	ldi	r18, 0xFF	; 255
     47e:	36 e7       	ldi	r19, 0x76	; 118
     480:	61 e0       	ldi	r22, 0x01	; 1
     482:	21 50       	subi	r18, 0x01	; 1
     484:	30 40       	sbci	r19, 0x00	; 0
     486:	60 40       	sbci	r22, 0x00	; 0
     488:	e1 f7       	brne	.-8      	; 0x482 <btn_long_press+0x1c>
     48a:	00 c0       	rjmp	.+0      	; 0x48c <btn_long_press+0x26>
     48c:	00 00       	nop
	PORTD |=  (1<<BTN_PROG_PIN)|(1<<BTN_ADD_PIN)|(1<<BTN_DEL_PIN);
	// LEDs: salida
	DDRD |= (1<<LED_ROJO_PIN)|(1<<LED_VERDE_PIN);
	PORTD &= ~((1<<LED_ROJO_PIN)|(1<<LED_VERDE_PIN));
}
static inline uint8_t btn_read(uint8_t bit){ return (PIND & (1<<bit))?1:0; } // 1=libre, 0=apretado
     48e:	29 b1       	in	r18, 0x09	; 9
     490:	30 e0       	ldi	r19, 0x00	; 0
     492:	b9 01       	movw	r22, r18
     494:	02 c0       	rjmp	.+4      	; 0x49a <btn_long_press+0x34>
     496:	75 95       	asr	r23
     498:	67 95       	ror	r22
     49a:	8a 95       	dec	r24
     49c:	e2 f7       	brpl	.-8      	; 0x496 <btn_long_press+0x30>
	return 0;
}
static uint8_t btn_long_press(uint8_t bit){
	if(!btn_read(bit)){
		_delay_ms(BTN_DEBOUNCE_MS);
		if(!btn_read(bit)){
     49e:	60 ff       	sbrs	r22, 0
     4a0:	0b c0       	rjmp	.+22     	; 0x4b8 <btn_long_press+0x52>
			while(!btn_read(bit)){}
			_delay_ms(BTN_DEBOUNCE_MS);
			return (t >= BTN_LONG_MS);
		}
	}
	return 0;
     4a2:	80 e0       	ldi	r24, 0x00	; 0
     4a4:	08 95       	ret
     4a6:	8f e3       	ldi	r24, 0x3F	; 63
     4a8:	9c e9       	ldi	r25, 0x9C	; 156
     4aa:	01 97       	sbiw	r24, 0x01	; 1
     4ac:	f1 f7       	brne	.-4      	; 0x4aa <btn_long_press+0x44>
     4ae:	00 c0       	rjmp	.+0      	; 0x4b0 <btn_long_press+0x4a>
     4b0:	00 00       	nop
static uint8_t btn_long_press(uint8_t bit){
	if(!btn_read(bit)){
		_delay_ms(BTN_DEBOUNCE_MS);
		if(!btn_read(bit)){
			uint16_t t=0;
			while(!btn_read(bit) && t < BTN_LONG_MS){ _delay_ms(10); t+=10; }
     4b2:	26 5f       	subi	r18, 0xF6	; 246
     4b4:	3f 4f       	sbci	r19, 0xFF	; 255
     4b6:	02 c0       	rjmp	.+4      	; 0x4bc <btn_long_press+0x56>
     4b8:	20 e0       	ldi	r18, 0x00	; 0
     4ba:	30 e0       	ldi	r19, 0x00	; 0
	PORTD |=  (1<<BTN_PROG_PIN)|(1<<BTN_ADD_PIN)|(1<<BTN_DEL_PIN);
	// LEDs: salida
	DDRD |= (1<<LED_ROJO_PIN)|(1<<LED_VERDE_PIN);
	PORTD &= ~((1<<LED_ROJO_PIN)|(1<<LED_VERDE_PIN));
}
static inline uint8_t btn_read(uint8_t bit){ return (PIND & (1<<bit))?1:0; } // 1=libre, 0=apretado
     4bc:	89 b1       	in	r24, 0x09	; 9
     4be:	90 e0       	ldi	r25, 0x00	; 0
     4c0:	04 2e       	mov	r0, r20
     4c2:	02 c0       	rjmp	.+4      	; 0x4c8 <btn_long_press+0x62>
     4c4:	95 95       	asr	r25
     4c6:	87 95       	ror	r24
     4c8:	0a 94       	dec	r0
     4ca:	e2 f7       	brpl	.-8      	; 0x4c4 <btn_long_press+0x5e>
static uint8_t btn_long_press(uint8_t bit){
	if(!btn_read(bit)){
		_delay_ms(BTN_DEBOUNCE_MS);
		if(!btn_read(bit)){
			uint16_t t=0;
			while(!btn_read(bit) && t < BTN_LONG_MS){ _delay_ms(10); t+=10; }
     4cc:	80 fd       	sbrc	r24, 0
     4ce:	04 c0       	rjmp	.+8      	; 0x4d8 <btn_long_press+0x72>
     4d0:	2c 3d       	cpi	r18, 0xDC	; 220
     4d2:	95 e0       	ldi	r25, 0x05	; 5
     4d4:	39 07       	cpc	r19, r25
     4d6:	38 f3       	brcs	.-50     	; 0x4a6 <btn_long_press+0x40>
	PORTD |=  (1<<BTN_PROG_PIN)|(1<<BTN_ADD_PIN)|(1<<BTN_DEL_PIN);
	// LEDs: salida
	DDRD |= (1<<LED_ROJO_PIN)|(1<<LED_VERDE_PIN);
	PORTD &= ~((1<<LED_ROJO_PIN)|(1<<LED_VERDE_PIN));
}
static inline uint8_t btn_read(uint8_t bit){ return (PIND & (1<<bit))?1:0; } // 1=libre, 0=apretado
     4d8:	89 b1       	in	r24, 0x09	; 9
     4da:	90 e0       	ldi	r25, 0x00	; 0
     4dc:	04 2e       	mov	r0, r20
     4de:	02 c0       	rjmp	.+4      	; 0x4e4 <btn_long_press+0x7e>
     4e0:	95 95       	asr	r25
     4e2:	87 95       	ror	r24
     4e4:	0a 94       	dec	r0
     4e6:	e2 f7       	brpl	.-8      	; 0x4e0 <btn_long_press+0x7a>
	if(!btn_read(bit)){
		_delay_ms(BTN_DEBOUNCE_MS);
		if(!btn_read(bit)){
			uint16_t t=0;
			while(!btn_read(bit) && t < BTN_LONG_MS){ _delay_ms(10); t+=10; }
			while(!btn_read(bit)){}
     4e8:	80 ff       	sbrs	r24, 0
     4ea:	f6 cf       	rjmp	.-20     	; 0x4d8 <btn_long_press+0x72>
     4ec:	4f ef       	ldi	r20, 0xFF	; 255
     4ee:	66 e7       	ldi	r22, 0x76	; 118
     4f0:	71 e0       	ldi	r23, 0x01	; 1
     4f2:	41 50       	subi	r20, 0x01	; 1
     4f4:	60 40       	sbci	r22, 0x00	; 0
     4f6:	70 40       	sbci	r23, 0x00	; 0
     4f8:	e1 f7       	brne	.-8      	; 0x4f2 <btn_long_press+0x8c>
     4fa:	00 c0       	rjmp	.+0      	; 0x4fc <btn_long_press+0x96>
     4fc:	00 00       	nop
			_delay_ms(BTN_DEBOUNCE_MS);
			return (t >= BTN_LONG_MS);
     4fe:	81 e0       	ldi	r24, 0x01	; 1
     500:	2c 3d       	cpi	r18, 0xDC	; 220
     502:	35 40       	sbci	r19, 0x05	; 5
     504:	18 f4       	brcc	.+6      	; 0x50c <btn_long_press+0xa6>
     506:	80 e0       	ldi	r24, 0x00	; 0
     508:	08 95       	ret
		}
	}
	return 0;
     50a:	80 e0       	ldi	r24, 0x00	; 0
}
     50c:	08 95       	ret

0000050e <find_free_slot>:
}
static void eeprom_clear_slot(uint8_t idx){
	uint16_t a = slot_addr(idx);
	eeprom_update_byte((uint8_t*)a, 0); // len=0 => libre
}
static int8_t find_free_slot(void){
     50e:	cf 93       	push	r28
	for(uint8_t i=0;i<MAX_CARDS;i++){
     510:	c0 e0       	ldi	r28, 0x00	; 0
     512:	0f c0       	rjmp	.+30     	; 0x532 <find_free_slot+0x24>
static bool uid_equal(const uint8_t *a, const uint8_t *b, uint8_t n){
	for(uint8_t i=0;i<n;i++) if(a[i]!=b[i]) return false; return true;
}

/* ===================== EEPROM: tabla de tarjetas ===================== */
static inline uint16_t slot_addr(uint8_t idx){ return (uint16_t)idx * (uint16_t)SLOT_SIZE; }
     514:	8c 2f       	mov	r24, r28
     516:	90 e0       	ldi	r25, 0x00	; 0
	uint16_t a = slot_addr(idx);
	eeprom_update_byte((uint8_t*)a, 0); // len=0 => libre
}
static int8_t find_free_slot(void){
	for(uint8_t i=0;i<MAX_CARDS;i++){
		uint8_t l = eeprom_read_byte((uint8_t*)slot_addr(i));
     518:	88 0f       	add	r24, r24
     51a:	99 1f       	adc	r25, r25
     51c:	88 0f       	add	r24, r24
     51e:	99 1f       	adc	r25, r25
     520:	88 0f       	add	r24, r24
     522:	99 1f       	adc	r25, r25
     524:	0e 94 b6 0d 	call	0x1b6c	; 0x1b6c <eeprom_read_byte>
		if(l==0) return i;
     528:	81 11       	cpse	r24, r1
     52a:	02 c0       	rjmp	.+4      	; 0x530 <find_free_slot+0x22>
     52c:	8c 2f       	mov	r24, r28
     52e:	04 c0       	rjmp	.+8      	; 0x538 <find_free_slot+0x2a>
static void eeprom_clear_slot(uint8_t idx){
	uint16_t a = slot_addr(idx);
	eeprom_update_byte((uint8_t*)a, 0); // len=0 => libre
}
static int8_t find_free_slot(void){
	for(uint8_t i=0;i<MAX_CARDS;i++){
     530:	cf 5f       	subi	r28, 0xFF	; 255
     532:	c0 34       	cpi	r28, 0x40	; 64
     534:	78 f3       	brcs	.-34     	; 0x514 <find_free_slot+0x6>
		uint8_t l = eeprom_read_byte((uint8_t*)slot_addr(i));
		if(l==0) return i;
	}
	return -1;
     536:	8f ef       	ldi	r24, 0xFF	; 255
}
     538:	cf 91       	pop	r28
     53a:	08 95       	ret

0000053c <eeprom_read_slot>:
}

/* ===================== EEPROM: tabla de tarjetas ===================== */
static inline uint16_t slot_addr(uint8_t idx){ return (uint16_t)idx * (uint16_t)SLOT_SIZE; }

static void eeprom_read_slot(uint8_t idx, uint8_t *uid, uint8_t *len){
     53c:	cf 92       	push	r12
     53e:	df 92       	push	r13
     540:	ef 92       	push	r14
     542:	ff 92       	push	r15
     544:	0f 93       	push	r16
     546:	1f 93       	push	r17
     548:	cf 93       	push	r28
     54a:	df 93       	push	r29
     54c:	6b 01       	movw	r12, r22
     54e:	8a 01       	movw	r16, r20
static bool uid_equal(const uint8_t *a, const uint8_t *b, uint8_t n){
	for(uint8_t i=0;i<n;i++) if(a[i]!=b[i]) return false; return true;
}

/* ===================== EEPROM: tabla de tarjetas ===================== */
static inline uint16_t slot_addr(uint8_t idx){ return (uint16_t)idx * (uint16_t)SLOT_SIZE; }
     550:	e8 2e       	mov	r14, r24
     552:	f1 2c       	mov	r15, r1
     554:	ee 0c       	add	r14, r14
     556:	ff 1c       	adc	r15, r15
     558:	ee 0c       	add	r14, r14
     55a:	ff 1c       	adc	r15, r15
     55c:	ee 0c       	add	r14, r14
     55e:	ff 1c       	adc	r15, r15

static void eeprom_read_slot(uint8_t idx, uint8_t *uid, uint8_t *len){
	uint16_t a = slot_addr(idx);
	uint8_t l = eeprom_read_byte((uint8_t*)a);
     560:	c7 01       	movw	r24, r14
     562:	0e 94 b6 0d 	call	0x1b6c	; 0x1b6c <eeprom_read_byte>
     566:	d8 2f       	mov	r29, r24
	if(l==0 || l>MAX_UID_LEN){ *len=0; return; }
     568:	8f ef       	ldi	r24, 0xFF	; 255
     56a:	8d 0f       	add	r24, r29
     56c:	87 30       	cpi	r24, 0x07	; 7
     56e:	18 f0       	brcs	.+6      	; 0x576 <eeprom_read_slot+0x3a>
     570:	f8 01       	movw	r30, r16
     572:	10 82       	st	Z, r1
     574:	13 c0       	rjmp	.+38     	; 0x59c <eeprom_read_slot+0x60>
	*len = l;
     576:	f8 01       	movw	r30, r16
     578:	d0 83       	st	Z, r29
	for(uint8_t i=0;i<l;i++) uid[i] = eeprom_read_byte((uint8_t*)(a+1+i));
     57a:	c0 e0       	ldi	r28, 0x00	; 0
     57c:	0d c0       	rjmp	.+26     	; 0x598 <eeprom_read_slot+0x5c>
     57e:	8c 2f       	mov	r24, r28
     580:	90 e0       	ldi	r25, 0x00	; 0
     582:	86 01       	movw	r16, r12
     584:	08 0f       	add	r16, r24
     586:	19 1f       	adc	r17, r25
     588:	8e 0d       	add	r24, r14
     58a:	9f 1d       	adc	r25, r15
     58c:	01 96       	adiw	r24, 0x01	; 1
     58e:	0e 94 b6 0d 	call	0x1b6c	; 0x1b6c <eeprom_read_byte>
     592:	f8 01       	movw	r30, r16
     594:	80 83       	st	Z, r24
     596:	cf 5f       	subi	r28, 0xFF	; 255
     598:	cd 17       	cp	r28, r29
     59a:	88 f3       	brcs	.-30     	; 0x57e <eeprom_read_slot+0x42>
}
     59c:	df 91       	pop	r29
     59e:	cf 91       	pop	r28
     5a0:	1f 91       	pop	r17
     5a2:	0f 91       	pop	r16
     5a4:	ff 90       	pop	r15
     5a6:	ef 90       	pop	r14
     5a8:	df 90       	pop	r13
     5aa:	cf 90       	pop	r12
     5ac:	08 95       	ret

000005ae <find_card_in_eeprom>:
		uint8_t l = eeprom_read_byte((uint8_t*)slot_addr(i));
		if(l==0) return i;
	}
	return -1;
}
static int8_t find_card_in_eeprom(const uint8_t *uid, uint8_t len){
     5ae:	ef 92       	push	r14
     5b0:	ff 92       	push	r15
     5b2:	0f 93       	push	r16
     5b4:	1f 93       	push	r17
     5b6:	cf 93       	push	r28
     5b8:	df 93       	push	r29
     5ba:	cd b7       	in	r28, 0x3d	; 61
     5bc:	de b7       	in	r29, 0x3e	; 62
     5be:	28 97       	sbiw	r28, 0x08	; 8
     5c0:	0f b6       	in	r0, 0x3f	; 63
     5c2:	f8 94       	cli
     5c4:	de bf       	out	0x3e, r29	; 62
     5c6:	0f be       	out	0x3f, r0	; 63
     5c8:	cd bf       	out	0x3d, r28	; 61
	if(len==0 || len>MAX_UID_LEN) return -1;
     5ca:	2f ef       	ldi	r18, 0xFF	; 255
     5cc:	26 0f       	add	r18, r22
     5ce:	27 30       	cpi	r18, 0x07	; 7
     5d0:	20 f5       	brcc	.+72     	; 0x61a <find_card_in_eeprom+0x6c>
     5d2:	06 2f       	mov	r16, r22
     5d4:	7c 01       	movw	r14, r24
     5d6:	10 e0       	ldi	r17, 0x00	; 0
     5d8:	1c c0       	rjmp	.+56     	; 0x612 <find_card_in_eeprom+0x64>
	for(uint8_t i=0;i<MAX_CARDS;i++){
		uint8_t l; uint8_t tmp[MAX_UID_LEN]={0};
     5da:	be 01       	movw	r22, r28
     5dc:	6f 5f       	subi	r22, 0xFF	; 255
     5de:	7f 4f       	sbci	r23, 0xFF	; 255
     5e0:	97 e0       	ldi	r25, 0x07	; 7
     5e2:	fb 01       	movw	r30, r22
     5e4:	11 92       	st	Z+, r1
     5e6:	9a 95       	dec	r25
     5e8:	e9 f7       	brne	.-6      	; 0x5e4 <find_card_in_eeprom+0x36>
		eeprom_read_slot(i,tmp,&l);
     5ea:	ae 01       	movw	r20, r28
     5ec:	48 5f       	subi	r20, 0xF8	; 248
     5ee:	5f 4f       	sbci	r21, 0xFF	; 255
     5f0:	81 2f       	mov	r24, r17
     5f2:	0e 94 9e 02 	call	0x53c	; 0x53c <eeprom_read_slot>
		if(l==len && uid_equal(tmp,uid,len)) return i;
     5f6:	98 85       	ldd	r25, Y+8	; 0x08
     5f8:	09 13       	cpse	r16, r25
     5fa:	0a c0       	rjmp	.+20     	; 0x610 <find_card_in_eeprom+0x62>
     5fc:	40 2f       	mov	r20, r16
     5fe:	b7 01       	movw	r22, r14
     600:	ce 01       	movw	r24, r28
     602:	01 96       	adiw	r24, 0x01	; 1
     604:	0e 94 8b 00 	call	0x116	; 0x116 <uid_equal>
     608:	88 23       	and	r24, r24
     60a:	11 f0       	breq	.+4      	; 0x610 <find_card_in_eeprom+0x62>
     60c:	81 2f       	mov	r24, r17
     60e:	06 c0       	rjmp	.+12     	; 0x61c <find_card_in_eeprom+0x6e>
	}
	return -1;
}
static int8_t find_card_in_eeprom(const uint8_t *uid, uint8_t len){
	if(len==0 || len>MAX_UID_LEN) return -1;
	for(uint8_t i=0;i<MAX_CARDS;i++){
     610:	1f 5f       	subi	r17, 0xFF	; 255
     612:	10 34       	cpi	r17, 0x40	; 64
     614:	10 f3       	brcs	.-60     	; 0x5da <find_card_in_eeprom+0x2c>
		uint8_t l; uint8_t tmp[MAX_UID_LEN]={0};
		eeprom_read_slot(i,tmp,&l);
		if(l==len && uid_equal(tmp,uid,len)) return i;
	}
	return -1;
     616:	8f ef       	ldi	r24, 0xFF	; 255
     618:	01 c0       	rjmp	.+2      	; 0x61c <find_card_in_eeprom+0x6e>
		if(l==0) return i;
	}
	return -1;
}
static int8_t find_card_in_eeprom(const uint8_t *uid, uint8_t len){
	if(len==0 || len>MAX_UID_LEN) return -1;
     61a:	8f ef       	ldi	r24, 0xFF	; 255
		uint8_t l; uint8_t tmp[MAX_UID_LEN]={0};
		eeprom_read_slot(i,tmp,&l);
		if(l==len && uid_equal(tmp,uid,len)) return i;
	}
	return -1;
}
     61c:	28 96       	adiw	r28, 0x08	; 8
     61e:	0f b6       	in	r0, 0x3f	; 63
     620:	f8 94       	cli
     622:	de bf       	out	0x3e, r29	; 62
     624:	0f be       	out	0x3f, r0	; 63
     626:	cd bf       	out	0x3d, r28	; 61
     628:	df 91       	pop	r29
     62a:	cf 91       	pop	r28
     62c:	1f 91       	pop	r17
     62e:	0f 91       	pop	r16
     630:	ff 90       	pop	r15
     632:	ef 90       	pop	r14
     634:	08 95       	ret

00000636 <uart_list>:

/* ===================== UART comandos ===================== */
static void uart_list(void){
     636:	8f 92       	push	r8
     638:	9f 92       	push	r9
     63a:	af 92       	push	r10
     63c:	bf 92       	push	r11
     63e:	df 92       	push	r13
     640:	ef 92       	push	r14
     642:	ff 92       	push	r15
     644:	0f 93       	push	r16
     646:	1f 93       	push	r17
     648:	cf 93       	push	r28
     64a:	df 93       	push	r29
     64c:	00 d0       	rcall	.+0      	; 0x64e <uart_list+0x18>
     64e:	00 d0       	rcall	.+0      	; 0x650 <uart_list+0x1a>
     650:	cd b7       	in	r28, 0x3d	; 61
     652:	de b7       	in	r29, 0x3e	; 62
	uart_print("Listado de tarjetas:\r\n");
     654:	80 e5       	ldi	r24, 0x50	; 80
     656:	91 e0       	ldi	r25, 0x01	; 1
     658:	0e 94 81 07 	call	0xf02	; 0xf02 <uart_print>
	for(uint8_t i=0;i<MAX_CARDS;i++){
     65c:	d1 2c       	mov	r13, r1
     65e:	54 c0       	rjmp	.+168    	; 0x708 <uart_list+0xd2>
static bool uid_equal(const uint8_t *a, const uint8_t *b, uint8_t n){
	for(uint8_t i=0;i<n;i++) if(a[i]!=b[i]) return false; return true;
}

/* ===================== EEPROM: tabla de tarjetas ===================== */
static inline uint16_t slot_addr(uint8_t idx){ return (uint16_t)idx * (uint16_t)SLOT_SIZE; }
     660:	ed 2c       	mov	r14, r13
     662:	f1 2c       	mov	r15, r1
     664:	ee 0c       	add	r14, r14
     666:	ff 1c       	adc	r15, r15
     668:	ee 0c       	add	r14, r14
     66a:	ff 1c       	adc	r15, r15
     66c:	ee 0c       	add	r14, r14
     66e:	ff 1c       	adc	r15, r15
/* ===================== UART comandos ===================== */
static void uart_list(void){
	uart_print("Listado de tarjetas:\r\n");
	for(uint8_t i=0;i<MAX_CARDS;i++){
		uint16_t a = slot_addr(i);
		uint8_t l = eeprom_read_byte((uint8_t*)a);
     670:	c7 01       	movw	r24, r14
     672:	0e 94 b6 0d 	call	0x1b6c	; 0x1b6c <eeprom_read_byte>
     676:	08 2f       	mov	r16, r24
		if(l==0) continue;
     678:	88 23       	and	r24, r24
     67a:	09 f4       	brne	.+2      	; 0x67e <uart_list+0x48>
     67c:	44 c0       	rjmp	.+136    	; 0x706 <uart_list+0xd0>
		uart_print("#"); char buf[4]; sprintf(buf,"%u",i); uart_print(buf);
     67e:	87 e6       	ldi	r24, 0x67	; 103
     680:	91 e0       	ldi	r25, 0x01	; 1
     682:	0e 94 81 07 	call	0xf02	; 0xf02 <uart_print>
     686:	1f 92       	push	r1
     688:	df 92       	push	r13
     68a:	0f 2e       	mov	r0, r31
     68c:	f9 e6       	ldi	r31, 0x69	; 105
     68e:	8f 2e       	mov	r8, r31
     690:	f1 e0       	ldi	r31, 0x01	; 1
     692:	9f 2e       	mov	r9, r31
     694:	f0 2d       	mov	r31, r0
     696:	9f 92       	push	r9
     698:	8f 92       	push	r8
     69a:	ce 01       	movw	r24, r28
     69c:	01 96       	adiw	r24, 0x01	; 1
     69e:	5c 01       	movw	r10, r24
     6a0:	9f 93       	push	r25
     6a2:	8f 93       	push	r24
     6a4:	0e 94 cf 07 	call	0xf9e	; 0xf9e <sprintf>
     6a8:	c5 01       	movw	r24, r10
     6aa:	0e 94 81 07 	call	0xf02	; 0xf02 <uart_print>
		uart_print("  len="); sprintf(buf,"%u",l); uart_print(buf);
     6ae:	8c e6       	ldi	r24, 0x6C	; 108
     6b0:	91 e0       	ldi	r25, 0x01	; 1
     6b2:	0e 94 81 07 	call	0xf02	; 0xf02 <uart_print>
     6b6:	1f 92       	push	r1
     6b8:	0f 93       	push	r16
     6ba:	9f 92       	push	r9
     6bc:	8f 92       	push	r8
     6be:	bf 92       	push	r11
     6c0:	af 92       	push	r10
     6c2:	0e 94 cf 07 	call	0xf9e	; 0xf9e <sprintf>
     6c6:	c5 01       	movw	r24, r10
     6c8:	0e 94 81 07 	call	0xf02	; 0xf02 <uart_print>
		uart_print("  UID: ");
     6cc:	83 e7       	ldi	r24, 0x73	; 115
     6ce:	91 e0       	ldi	r25, 0x01	; 1
     6d0:	0e 94 81 07 	call	0xf02	; 0xf02 <uart_print>
		for(uint8_t k=0;k<l;k++){ uint8_t b=eeprom_read_byte((uint8_t*)(a+1+k)); uart_print_hex(b); uart_send(' '); }
     6d4:	0f b6       	in	r0, 0x3f	; 63
     6d6:	f8 94       	cli
     6d8:	de bf       	out	0x3e, r29	; 62
     6da:	0f be       	out	0x3f, r0	; 63
     6dc:	cd bf       	out	0x3d, r28	; 61
     6de:	10 e0       	ldi	r17, 0x00	; 0
     6e0:	0c c0       	rjmp	.+24     	; 0x6fa <uart_list+0xc4>
     6e2:	c7 01       	movw	r24, r14
     6e4:	81 0f       	add	r24, r17
     6e6:	91 1d       	adc	r25, r1
     6e8:	01 96       	adiw	r24, 0x01	; 1
     6ea:	0e 94 b6 0d 	call	0x1b6c	; 0x1b6c <eeprom_read_byte>
     6ee:	0e 94 8e 07 	call	0xf1c	; 0xf1c <uart_print_hex>
     6f2:	80 e2       	ldi	r24, 0x20	; 32
     6f4:	0e 94 7a 07 	call	0xef4	; 0xef4 <uart_send>
     6f8:	1f 5f       	subi	r17, 0xFF	; 255
     6fa:	10 17       	cp	r17, r16
     6fc:	90 f3       	brcs	.-28     	; 0x6e2 <uart_list+0xac>
		uart_print("\r\n");
     6fe:	8a e8       	ldi	r24, 0x8A	; 138
     700:	94 e0       	ldi	r25, 0x04	; 4
     702:	0e 94 81 07 	call	0xf02	; 0xf02 <uart_print>
}

/* ===================== UART comandos ===================== */
static void uart_list(void){
	uart_print("Listado de tarjetas:\r\n");
	for(uint8_t i=0;i<MAX_CARDS;i++){
     706:	d3 94       	inc	r13
     708:	9f e3       	ldi	r25, 0x3F	; 63
     70a:	9d 15       	cp	r25, r13
     70c:	08 f0       	brcs	.+2      	; 0x710 <uart_list+0xda>
     70e:	a8 cf       	rjmp	.-176    	; 0x660 <uart_list+0x2a>
		uart_print("  len="); sprintf(buf,"%u",l); uart_print(buf);
		uart_print("  UID: ");
		for(uint8_t k=0;k<l;k++){ uint8_t b=eeprom_read_byte((uint8_t*)(a+1+k)); uart_print_hex(b); uart_send(' '); }
		uart_print("\r\n");
	}
}
     710:	0f 90       	pop	r0
     712:	0f 90       	pop	r0
     714:	0f 90       	pop	r0
     716:	0f 90       	pop	r0
     718:	df 91       	pop	r29
     71a:	cf 91       	pop	r28
     71c:	1f 91       	pop	r17
     71e:	0f 91       	pop	r16
     720:	ff 90       	pop	r15
     722:	ef 90       	pop	r14
     724:	df 90       	pop	r13
     726:	bf 90       	pop	r11
     728:	af 90       	pop	r10
     72a:	9f 90       	pop	r9
     72c:	8f 90       	pop	r8
     72e:	08 95       	ret

00000730 <eeprom_write_slot>:
	uint8_t l = eeprom_read_byte((uint8_t*)a);
	if(l==0 || l>MAX_UID_LEN){ *len=0; return; }
	*len = l;
	for(uint8_t i=0;i<l;i++) uid[i] = eeprom_read_byte((uint8_t*)(a+1+i));
}
static void eeprom_write_slot(uint8_t idx, const uint8_t *uid, uint8_t len){
     730:	ef 92       	push	r14
     732:	ff 92       	push	r15
     734:	0f 93       	push	r16
     736:	1f 93       	push	r17
     738:	cf 93       	push	r28
     73a:	df 93       	push	r29
	if(len==0 || len>MAX_UID_LEN) return;
     73c:	9f ef       	ldi	r25, 0xFF	; 255
     73e:	94 0f       	add	r25, r20
     740:	97 30       	cpi	r25, 0x07	; 7
     742:	f0 f4       	brcc	.+60     	; 0x780 <eeprom_write_slot+0x50>
     744:	d4 2f       	mov	r29, r20
     746:	7b 01       	movw	r14, r22
static bool uid_equal(const uint8_t *a, const uint8_t *b, uint8_t n){
	for(uint8_t i=0;i<n;i++) if(a[i]!=b[i]) return false; return true;
}

/* ===================== EEPROM: tabla de tarjetas ===================== */
static inline uint16_t slot_addr(uint8_t idx){ return (uint16_t)idx * (uint16_t)SLOT_SIZE; }
     748:	08 2f       	mov	r16, r24
     74a:	10 e0       	ldi	r17, 0x00	; 0
     74c:	00 0f       	add	r16, r16
     74e:	11 1f       	adc	r17, r17
     750:	00 0f       	add	r16, r16
     752:	11 1f       	adc	r17, r17
     754:	00 0f       	add	r16, r16
     756:	11 1f       	adc	r17, r17
	for(uint8_t i=0;i<l;i++) uid[i] = eeprom_read_byte((uint8_t*)(a+1+i));
}
static void eeprom_write_slot(uint8_t idx, const uint8_t *uid, uint8_t len){
	if(len==0 || len>MAX_UID_LEN) return;
	uint16_t a = slot_addr(idx);
	eeprom_update_byte((uint8_t*)a, len);
     758:	64 2f       	mov	r22, r20
     75a:	c8 01       	movw	r24, r16
     75c:	0e 94 be 0d 	call	0x1b7c	; 0x1b7c <eeprom_update_byte>
	for(uint8_t i=0;i<len;i++) eeprom_update_byte((uint8_t*)(a+1+i), uid[i]);
     760:	c0 e0       	ldi	r28, 0x00	; 0
     762:	0c c0       	rjmp	.+24     	; 0x77c <eeprom_write_slot+0x4c>
     764:	8c 2f       	mov	r24, r28
     766:	90 e0       	ldi	r25, 0x00	; 0
     768:	f7 01       	movw	r30, r14
     76a:	e8 0f       	add	r30, r24
     76c:	f9 1f       	adc	r31, r25
     76e:	80 0f       	add	r24, r16
     770:	91 1f       	adc	r25, r17
     772:	60 81       	ld	r22, Z
     774:	01 96       	adiw	r24, 0x01	; 1
     776:	0e 94 be 0d 	call	0x1b7c	; 0x1b7c <eeprom_update_byte>
     77a:	cf 5f       	subi	r28, 0xFF	; 255
     77c:	cd 17       	cp	r28, r29
     77e:	90 f3       	brcs	.-28     	; 0x764 <eeprom_write_slot+0x34>
}
     780:	df 91       	pop	r29
     782:	cf 91       	pop	r28
     784:	1f 91       	pop	r17
     786:	0f 91       	pop	r16
     788:	ff 90       	pop	r15
     78a:	ef 90       	pop	r14
     78c:	08 95       	ret

0000078e <eeprom_clear_slot>:
static bool uid_equal(const uint8_t *a, const uint8_t *b, uint8_t n){
	for(uint8_t i=0;i<n;i++) if(a[i]!=b[i]) return false; return true;
}

/* ===================== EEPROM: tabla de tarjetas ===================== */
static inline uint16_t slot_addr(uint8_t idx){ return (uint16_t)idx * (uint16_t)SLOT_SIZE; }
     78e:	90 e0       	ldi	r25, 0x00	; 0
	eeprom_update_byte((uint8_t*)a, len);
	for(uint8_t i=0;i<len;i++) eeprom_update_byte((uint8_t*)(a+1+i), uid[i]);
}
static void eeprom_clear_slot(uint8_t idx){
	uint16_t a = slot_addr(idx);
	eeprom_update_byte((uint8_t*)a, 0); // len=0 => libre
     790:	60 e0       	ldi	r22, 0x00	; 0
     792:	88 0f       	add	r24, r24
     794:	99 1f       	adc	r25, r25
     796:	88 0f       	add	r24, r24
     798:	99 1f       	adc	r25, r25
     79a:	88 0f       	add	r24, r24
     79c:	99 1f       	adc	r25, r25
     79e:	0e 94 be 0d 	call	0x1b7c	; 0x1b7c <eeprom_update_byte>
     7a2:	08 95       	ret

000007a4 <uart_handle_line>:
		r[i]=uart_receive();
		if(r[i]=='\r' || r[i]=='\n'){ r[i]=0; break; }
	}
	return (r[0]=='Y' && r[1]=='E' && r[2]=='S');
}
static void uart_handle_line(char *line){
     7a4:	0f 93       	push	r16
     7a6:	1f 93       	push	r17
     7a8:	cf 93       	push	r28
     7aa:	df 93       	push	r29
     7ac:	00 d0       	rcall	.+0      	; 0x7ae <uart_handle_line+0xa>
     7ae:	cd b7       	in	r28, 0x3d	; 61
     7b0:	de b7       	in	r29, 0x3e	; 62
     7b2:	8c 01       	movw	r16, r24
	if(strncmp(line,"LIST",4)==0){
     7b4:	44 e0       	ldi	r20, 0x04	; 4
     7b6:	50 e0       	ldi	r21, 0x00	; 0
     7b8:	6b e7       	ldi	r22, 0x7B	; 123
     7ba:	71 e0       	ldi	r23, 0x01	; 1
     7bc:	0e 94 c1 07 	call	0xf82	; 0xf82 <strncmp>
     7c0:	89 2b       	or	r24, r25
     7c2:	19 f4       	brne	.+6      	; 0x7ca <uart_handle_line+0x26>
		uart_list();
     7c4:	0e 94 1b 03 	call	0x636	; 0x636 <uart_list>
     7c8:	60 c0       	rjmp	.+192    	; 0x88a <__DATA_REGION_LENGTH__+0x8a>
		}else if(strncmp(line,"CLEAR",5)==0){
     7ca:	45 e0       	ldi	r20, 0x05	; 5
     7cc:	50 e0       	ldi	r21, 0x00	; 0
     7ce:	60 e8       	ldi	r22, 0x80	; 128
     7d0:	71 e0       	ldi	r23, 0x01	; 1
     7d2:	c8 01       	movw	r24, r16
     7d4:	0e 94 c1 07 	call	0xf82	; 0xf82 <strncmp>
     7d8:	89 2b       	or	r24, r25
     7da:	b9 f4       	brne	.+46     	; 0x80a <__DATA_REGION_LENGTH__+0xa>
		if(uart_expect_yes()){
     7dc:	0e 94 a1 00 	call	0x142	; 0x142 <uart_expect_yes>
     7e0:	81 11       	cpse	r24, r1
     7e2:	06 c0       	rjmp	.+12     	; 0x7f0 <uart_handle_line+0x4c>
     7e4:	0d c0       	rjmp	.+26     	; 0x800 <__DATA_REGION_LENGTH__>
			for(uint8_t i=0;i<MAX_CARDS;i++) eeprom_clear_slot(i);
     7e6:	81 2f       	mov	r24, r17
     7e8:	0e 94 c7 03 	call	0x78e	; 0x78e <eeprom_clear_slot>
     7ec:	1f 5f       	subi	r17, 0xFF	; 255
     7ee:	01 c0       	rjmp	.+2      	; 0x7f2 <uart_handle_line+0x4e>
     7f0:	10 e0       	ldi	r17, 0x00	; 0
     7f2:	10 34       	cpi	r17, 0x40	; 64
     7f4:	c0 f3       	brcs	.-16     	; 0x7e6 <uart_handle_line+0x42>
			uart_print("EEPROM limpia\r\n");
     7f6:	86 e8       	ldi	r24, 0x86	; 134
     7f8:	91 e0       	ldi	r25, 0x01	; 1
     7fa:	0e 94 81 07 	call	0xf02	; 0xf02 <uart_print>
     7fe:	45 c0       	rjmp	.+138    	; 0x88a <__DATA_REGION_LENGTH__+0x8a>
			}else{
			uart_print("Cancelado\r\n");
     800:	86 e9       	ldi	r24, 0x96	; 150
     802:	91 e0       	ldi	r25, 0x01	; 1
     804:	0e 94 81 07 	call	0xf02	; 0xf02 <uart_print>
     808:	40 c0       	rjmp	.+128    	; 0x88a <__DATA_REGION_LENGTH__+0x8a>
		}
		}else if(strncmp(line,"DEL ",4)==0){
     80a:	44 e0       	ldi	r20, 0x04	; 4
     80c:	50 e0       	ldi	r21, 0x00	; 0
     80e:	62 ea       	ldi	r22, 0xA2	; 162
     810:	71 e0       	ldi	r23, 0x01	; 1
     812:	c8 01       	movw	r24, r16
     814:	0e 94 c1 07 	call	0xf82	; 0xf82 <strncmp>
     818:	89 2b       	or	r24, r25
     81a:	99 f5       	brne	.+102    	; 0x882 <__DATA_REGION_LENGTH__+0x82>
		int n = -1; sscanf(line+4,"%d",&n);
     81c:	8f ef       	ldi	r24, 0xFF	; 255
     81e:	9f ef       	ldi	r25, 0xFF	; 255
     820:	9a 83       	std	Y+2, r25	; 0x02
     822:	89 83       	std	Y+1, r24	; 0x01
     824:	ce 01       	movw	r24, r28
     826:	01 96       	adiw	r24, 0x01	; 1
     828:	9f 93       	push	r25
     82a:	8f 93       	push	r24
     82c:	87 ea       	ldi	r24, 0xA7	; 167
     82e:	91 e0       	ldi	r25, 0x01	; 1
     830:	9f 93       	push	r25
     832:	8f 93       	push	r24
     834:	0c 5f       	subi	r16, 0xFC	; 252
     836:	1f 4f       	sbci	r17, 0xFF	; 255
     838:	1f 93       	push	r17
     83a:	0f 93       	push	r16
     83c:	0e 94 f1 07 	call	0xfe2	; 0xfe2 <sscanf>
		if(n>=0 && n<MAX_CARDS){
     840:	89 81       	ldd	r24, Y+1	; 0x01
     842:	9a 81       	ldd	r25, Y+2	; 0x02
     844:	0f 90       	pop	r0
     846:	0f 90       	pop	r0
     848:	0f 90       	pop	r0
     84a:	0f 90       	pop	r0
     84c:	0f 90       	pop	r0
     84e:	0f 90       	pop	r0
     850:	80 34       	cpi	r24, 0x40	; 64
     852:	91 05       	cpc	r25, r1
     854:	88 f4       	brcc	.+34     	; 0x878 <__DATA_REGION_LENGTH__+0x78>
			if(uart_expect_yes()){ eeprom_clear_slot((uint8_t)n); uart_print("Borrado\r\n"); }
     856:	0e 94 a1 00 	call	0x142	; 0x142 <uart_expect_yes>
     85a:	88 23       	and	r24, r24
     85c:	41 f0       	breq	.+16     	; 0x86e <__DATA_REGION_LENGTH__+0x6e>
     85e:	89 81       	ldd	r24, Y+1	; 0x01
     860:	0e 94 c7 03 	call	0x78e	; 0x78e <eeprom_clear_slot>
     864:	8a ea       	ldi	r24, 0xAA	; 170
     866:	91 e0       	ldi	r25, 0x01	; 1
     868:	0e 94 81 07 	call	0xf02	; 0xf02 <uart_print>
     86c:	0e c0       	rjmp	.+28     	; 0x88a <__DATA_REGION_LENGTH__+0x8a>
			else uart_print("Cancelado\r\n");
     86e:	86 e9       	ldi	r24, 0x96	; 150
     870:	91 e0       	ldi	r25, 0x01	; 1
     872:	0e 94 81 07 	call	0xf02	; 0xf02 <uart_print>
     876:	09 c0       	rjmp	.+18     	; 0x88a <__DATA_REGION_LENGTH__+0x8a>
			}else{
			uart_print("Indice invalido\r\n");
     878:	84 eb       	ldi	r24, 0xB4	; 180
     87a:	91 e0       	ldi	r25, 0x01	; 1
     87c:	0e 94 81 07 	call	0xf02	; 0xf02 <uart_print>
     880:	04 c0       	rjmp	.+8      	; 0x88a <__DATA_REGION_LENGTH__+0x8a>
		}
		}else{
		uart_print("Comandos: LIST | CLEAR | DEL n\r\n");
     882:	86 ec       	ldi	r24, 0xC6	; 198
     884:	91 e0       	ldi	r25, 0x01	; 1
     886:	0e 94 81 07 	call	0xf02	; 0xf02 <uart_print>
	}
}
     88a:	0f 90       	pop	r0
     88c:	0f 90       	pop	r0
     88e:	df 91       	pop	r29
     890:	cf 91       	pop	r28
     892:	1f 91       	pop	r17
     894:	0f 91       	pop	r16
     896:	08 95       	ret

00000898 <main>:
	lcd_clear(); lcd_print_at(0,0,l1); lcd_print_at(1,0,l2);
	if(ms){ delay_ms_var(ms); }
}

/* ===================== MAIN ===================== */
int main(void){
     898:	cf 93       	push	r28
     89a:	df 93       	push	r29
     89c:	cd b7       	in	r28, 0x3d	; 61
     89e:	de b7       	in	r29, 0x3e	; 62
     8a0:	e4 97       	sbiw	r28, 0x34	; 52
     8a2:	0f b6       	in	r0, 0x3f	; 63
     8a4:	f8 94       	cli
     8a6:	de bf       	out	0x3e, r29	; 62
     8a8:	0f be       	out	0x3f, r0	; 63
     8aa:	cd bf       	out	0x3d, r28	; 61
	uart_init(UBRR_VAL);
     8ac:	87 e6       	ldi	r24, 0x67	; 103
     8ae:	90 e0       	ldi	r25, 0x00	; 0
     8b0:	0e 94 68 07 	call	0xed0	; 0xed0 <uart_init>
	spi_init();
     8b4:	0e 94 57 07 	call	0xeae	; 0xeae <spi_init>
	twi_init();
     8b8:	0e 94 51 00 	call	0xa2	; 0xa2 <twi_init>
	lcd_init();
     8bc:	0e 94 8c 01 	call	0x318	; 0x318 <lcd_init>
#define LED_ROJO_PIN   PD4   // D4
#define LED_VERDE_PIN  PD5   // D5

static inline void pin_init(void){
	// Botones: entrada con pull-up
	DDRD &= ~((1<<BTN_PROG_PIN)|(1<<BTN_ADD_PIN)|(1<<BTN_DEL_PIN));
     8c0:	8a b1       	in	r24, 0x0a	; 10
     8c2:	83 7b       	andi	r24, 0xB3	; 179
     8c4:	8a b9       	out	0x0a, r24	; 10
	PORTD |=  (1<<BTN_PROG_PIN)|(1<<BTN_ADD_PIN)|(1<<BTN_DEL_PIN);
     8c6:	8b b1       	in	r24, 0x0b	; 11
     8c8:	8c 64       	ori	r24, 0x4C	; 76
     8ca:	8b b9       	out	0x0b, r24	; 11
	// LEDs: salida
	DDRD |= (1<<LED_ROJO_PIN)|(1<<LED_VERDE_PIN);
     8cc:	8a b1       	in	r24, 0x0a	; 10
     8ce:	80 63       	ori	r24, 0x30	; 48
     8d0:	8a b9       	out	0x0a, r24	; 10
	PORTD &= ~((1<<LED_ROJO_PIN)|(1<<LED_VERDE_PIN));
     8d2:	8b b1       	in	r24, 0x0b	; 11
     8d4:	8f 7c       	andi	r24, 0xCF	; 207
     8d6:	8b b9       	out	0x0b, r24	; 11
	spi_init();
	twi_init();
	lcd_init();
	pin_init();

	PORTB |= (1<<PB2);       // SDA alto
     8d8:	85 b1       	in	r24, 0x05	; 5
     8da:	84 60       	ori	r24, 0x04	; 4
     8dc:	85 b9       	out	0x05, r24	; 5

	// RC522
	mfrc522_resetPinInit();
     8de:	0e 94 d4 05 	call	0xba8	; 0xba8 <mfrc522_resetPinInit>
	mfrc522_debug_init();
     8e2:	0e 94 58 06 	call	0xcb0	; 0xcb0 <mfrc522_debug_init>

	// UI inicial
	ui_idle();
     8e6:	0e 94 62 01 	call	0x2c4	; 0x2c4 <ui_idle>
	uart_print("\r\nCandado RFID listo. Comandos UART: LIST, CLEAR, DEL n\r\n");
     8ea:	87 ee       	ldi	r24, 0xE7	; 231
     8ec:	91 e0       	ldi	r25, 0x01	; 1
     8ee:	0e 94 81 07 	call	0xf02	; 0xf02 <uart_print>
	enum { ST_IDLE=0, ST_OPEN, ST_PROG, ST_WAIT_ADD, ST_WAIT_DEL } state = ST_IDLE;

	// Buffer UART simple
	char line[32]; uint8_t li=0;

	uint8_t last_uid[10]={0}; uint8_t last_n=0;
     8f2:	fe 01       	movw	r30, r28
     8f4:	b1 96       	adiw	r30, 0x21	; 33
     8f6:	8a e0       	ldi	r24, 0x0A	; 10
     8f8:	df 01       	movw	r26, r30
     8fa:	1d 92       	st	X+, r1
     8fc:	8a 95       	dec	r24
     8fe:	e9 f7       	brne	.-6      	; 0x8fa <main+0x62>
     900:	00 e0       	ldi	r16, 0x00	; 0
	uart_print("\r\nCandado RFID listo. Comandos UART: LIST, CLEAR, DEL n\r\n");

	enum { ST_IDLE=0, ST_OPEN, ST_PROG, ST_WAIT_ADD, ST_WAIT_DEL } state = ST_IDLE;

	// Buffer UART simple
	char line[32]; uint8_t li=0;
     902:	d1 2c       	mov	r13, r1

	// UI inicial
	ui_idle();
	uart_print("\r\nCandado RFID listo. Comandos UART: LIST, CLEAR, DEL n\r\n");

	enum { ST_IDLE=0, ST_OPEN, ST_PROG, ST_WAIT_ADD, ST_WAIT_DEL } state = ST_IDLE;
     904:	10 e0       	ldi	r17, 0x00	; 0

	uint8_t last_uid[10]={0}; uint8_t last_n=0;

	while(1){
		/* ---------- UART (lnea por lnea) ---------- */
		if(UCSR0A & (1<<RXC0)){
     906:	80 91 c0 00 	lds	r24, 0x00C0	; 0x8000c0 <__TEXT_REGION_LENGTH__+0x7f80c0>
     90a:	88 23       	and	r24, r24
     90c:	04 f5       	brge	.+64     	; 0x94e <__stack+0x4f>
			char c = uart_receive();
     90e:	0e 94 73 07 	call	0xee6	; 0xee6 <uart_receive>
			if(c=='\r' || c=='\n'){
     912:	8d 30       	cpi	r24, 0x0D	; 13
     914:	11 f0       	breq	.+4      	; 0x91a <__stack+0x1b>
     916:	8a 30       	cpi	r24, 0x0A	; 10
     918:	79 f4       	brne	.+30     	; 0x938 <__stack+0x39>
				line[li]=0; if(li>0){ uart_handle_line(line); li=0; }
     91a:	e1 e0       	ldi	r30, 0x01	; 1
     91c:	f0 e0       	ldi	r31, 0x00	; 0
     91e:	ec 0f       	add	r30, r28
     920:	fd 1f       	adc	r31, r29
     922:	ed 0d       	add	r30, r13
     924:	f1 1d       	adc	r31, r1
     926:	10 82       	st	Z, r1
     928:	dd 20       	and	r13, r13
     92a:	89 f0       	breq	.+34     	; 0x94e <__stack+0x4f>
     92c:	ce 01       	movw	r24, r28
     92e:	01 96       	adiw	r24, 0x01	; 1
     930:	0e 94 d2 03 	call	0x7a4	; 0x7a4 <uart_handle_line>
     934:	d1 2c       	mov	r13, r1
     936:	0b c0       	rjmp	.+22     	; 0x94e <__stack+0x4f>
				}else if(li < sizeof(line)-1){
     938:	be e1       	ldi	r27, 0x1E	; 30
     93a:	bd 15       	cp	r27, r13
     93c:	40 f0       	brcs	.+16     	; 0x94e <__stack+0x4f>
				line[li++]=c;
     93e:	e1 e0       	ldi	r30, 0x01	; 1
     940:	f0 e0       	ldi	r31, 0x00	; 0
     942:	ec 0f       	add	r30, r28
     944:	fd 1f       	adc	r31, r29
     946:	ed 0d       	add	r30, r13
     948:	f1 1d       	adc	r31, r1
     94a:	80 83       	st	Z, r24
     94c:	d3 94       	inc	r13
			}
		}

		/* ---------- Botones ---------- */
		// Pulsacin larga en PROG ? entrar/salir modo programacin
		if(state==ST_IDLE || state==ST_OPEN){
     94e:	12 30       	cpi	r17, 0x02	; 2
     950:	48 f4       	brcc	.+18     	; 0x964 <__stack+0x65>
			if(btn_long_press(BTN_PROG_PIN)){
     952:	82 e0       	ldi	r24, 0x02	; 2
     954:	0e 94 33 02 	call	0x466	; 0x466 <btn_long_press>
     958:	88 23       	and	r24, r24
     95a:	c9 f0       	breq	.+50     	; 0x98e <__stack+0x8f>
				state = ST_PROG;
				ui_prog_menu();
     95c:	0e 94 77 01 	call	0x2ee	; 0x2ee <ui_prog_menu>

		/* ---------- Botones ---------- */
		// Pulsacin larga en PROG ? entrar/salir modo programacin
		if(state==ST_IDLE || state==ST_OPEN){
			if(btn_long_press(BTN_PROG_PIN)){
				state = ST_PROG;
     960:	12 e0       	ldi	r17, 0x02	; 2
				ui_prog_menu();
				continue;
     962:	d1 cf       	rjmp	.-94     	; 0x906 <__stack+0x7>
			}
			}else if(state==ST_PROG || state==ST_WAIT_ADD || state==ST_WAIT_DEL){
     964:	8e ef       	ldi	r24, 0xFE	; 254
     966:	81 0f       	add	r24, r17
     968:	83 30       	cpi	r24, 0x03	; 3
     96a:	88 f4       	brcc	.+34     	; 0x98e <__stack+0x8f>
			if(btn_long_press(BTN_PROG_PIN)){
     96c:	82 e0       	ldi	r24, 0x02	; 2
     96e:	0e 94 33 02 	call	0x466	; 0x466 <btn_long_press>
     972:	88 23       	and	r24, r24
     974:	61 f0       	breq	.+24     	; 0x98e <__stack+0x8f>
				state = ST_IDLE;
				ui_idle();
     976:	0e 94 62 01 	call	0x2c4	; 0x2c4 <ui_idle>
				last_n=0; memset(last_uid,0,sizeof(last_uid));
     97a:	fe 01       	movw	r30, r28
     97c:	b1 96       	adiw	r30, 0x21	; 33
     97e:	8a e0       	ldi	r24, 0x0A	; 10
     980:	df 01       	movw	r26, r30
     982:	1d 92       	st	X+, r1
     984:	8a 95       	dec	r24
     986:	e9 f7       	brne	.-6      	; 0x982 <__stack+0x83>
     988:	00 e0       	ldi	r16, 0x00	; 0
				ui_prog_menu();
				continue;
			}
			}else if(state==ST_PROG || state==ST_WAIT_ADD || state==ST_WAIT_DEL){
			if(btn_long_press(BTN_PROG_PIN)){
				state = ST_IDLE;
     98a:	10 e0       	ldi	r17, 0x00	; 0
				ui_idle();
				last_n=0; memset(last_uid,0,sizeof(last_uid));
				continue;
     98c:	bc cf       	rjmp	.-136    	; 0x906 <__stack+0x7>
			}
		}

		if(state==ST_PROG){
     98e:	12 30       	cpi	r17, 0x02	; 2
     990:	f1 f4       	brne	.+60     	; 0x9ce <__stack+0xcf>
			if(btn_was_pressed(BTN_ADD_PIN)){
     992:	83 e0       	ldi	r24, 0x03	; 3
     994:	0e 94 fc 01 	call	0x3f8	; 0x3f8 <btn_was_pressed>
     998:	88 23       	and	r24, r24
     99a:	51 f0       	breq	.+20     	; 0x9b0 <__stack+0xb1>
				state = ST_WAIT_ADD;
				ui_msg("Pase tarjeta", "para ALTA", 0);
     99c:	40 e0       	ldi	r20, 0x00	; 0
     99e:	50 e0       	ldi	r21, 0x00	; 0
     9a0:	61 e2       	ldi	r22, 0x21	; 33
     9a2:	72 e0       	ldi	r23, 0x02	; 2
     9a4:	8b e2       	ldi	r24, 0x2B	; 43
     9a6:	92 e0       	ldi	r25, 0x02	; 2
     9a8:	0e 94 db 01 	call	0x3b6	; 0x3b6 <ui_msg>
			}
		}

		if(state==ST_PROG){
			if(btn_was_pressed(BTN_ADD_PIN)){
				state = ST_WAIT_ADD;
     9ac:	13 e0       	ldi	r17, 0x03	; 3
				ui_msg("Pase tarjeta", "para ALTA", 0);
				continue;
     9ae:	ab cf       	rjmp	.-170    	; 0x906 <__stack+0x7>
			}
			if(btn_was_pressed(BTN_DEL_PIN)){
     9b0:	86 e0       	ldi	r24, 0x06	; 6
     9b2:	0e 94 fc 01 	call	0x3f8	; 0x3f8 <btn_was_pressed>
     9b6:	88 23       	and	r24, r24
     9b8:	51 f0       	breq	.+20     	; 0x9ce <__stack+0xcf>
				state = ST_WAIT_DEL;
				ui_msg("Pase tarjeta", "para BAJA", 0);
     9ba:	40 e0       	ldi	r20, 0x00	; 0
     9bc:	50 e0       	ldi	r21, 0x00	; 0
     9be:	68 e3       	ldi	r22, 0x38	; 56
     9c0:	72 e0       	ldi	r23, 0x02	; 2
     9c2:	8b e2       	ldi	r24, 0x2B	; 43
     9c4:	92 e0       	ldi	r25, 0x02	; 2
     9c6:	0e 94 db 01 	call	0x3b6	; 0x3b6 <ui_msg>
				state = ST_WAIT_ADD;
				ui_msg("Pase tarjeta", "para ALTA", 0);
				continue;
			}
			if(btn_was_pressed(BTN_DEL_PIN)){
				state = ST_WAIT_DEL;
     9ca:	14 e0       	ldi	r17, 0x04	; 4
				ui_msg("Pase tarjeta", "para BAJA", 0);
				continue;
     9cc:	9c cf       	rjmp	.-200    	; 0x906 <__stack+0x7>
			}
		}

		/* ---------- Lectura de tarjeta ---------- */
		uint8_t uid[10]={0};
     9ce:	7e 01       	movw	r14, r28
     9d0:	bb e2       	ldi	r27, 0x2B	; 43
     9d2:	eb 0e       	add	r14, r27
     9d4:	f1 1c       	adc	r15, r1
     9d6:	8a e0       	ldi	r24, 0x0A	; 10
     9d8:	f7 01       	movw	r30, r14
     9da:	11 92       	st	Z+, r1
     9dc:	8a 95       	dec	r24
     9de:	e9 f7       	brne	.-6      	; 0x9da <__stack+0xdb>
		mfrc522_standard(uid);
     9e0:	c7 01       	movw	r24, r14
     9e2:	0e 94 b6 06 	call	0xd6c	; 0xd6c <mfrc522_standard>
		uint8_t n = uid_len(uid,10);
     9e6:	6a e0       	ldi	r22, 0x0A	; 10
     9e8:	c7 01       	movw	r24, r14
     9ea:	0e 94 7e 00 	call	0xfc	; 0xfc <uid_len>
     9ee:	f8 2e       	mov	r15, r24

		if(n==0){
     9f0:	81 11       	cpse	r24, r1
     9f2:	0a c0       	rjmp	.+20     	; 0xa08 <__stack+0x109>
     9f4:	ff ef       	ldi	r31, 0xFF	; 255
     9f6:	21 ee       	ldi	r18, 0xE1	; 225
     9f8:	84 e0       	ldi	r24, 0x04	; 4
     9fa:	f1 50       	subi	r31, 0x01	; 1
     9fc:	20 40       	sbci	r18, 0x00	; 0
     9fe:	80 40       	sbci	r24, 0x00	; 0
     a00:	e1 f7       	brne	.-8      	; 0x9fa <__stack+0xfb>
     a02:	00 c0       	rjmp	.+0      	; 0xa04 <__stack+0x105>
     a04:	00 00       	nop
			_delay_ms(100);
			continue;
     a06:	7f cf       	rjmp	.-258    	; 0x906 <__stack+0x7>
		}

		// Evitar spam con la misma tarjeta pegada
		bool same = (n==last_n) && uid_equal(uid,last_uid,n);
     a08:	08 13       	cpse	r16, r24
     a0a:	0c c0       	rjmp	.+24     	; 0xa24 <__stack+0x125>
     a0c:	48 2f       	mov	r20, r24
     a0e:	be 01       	movw	r22, r28
     a10:	6f 5d       	subi	r22, 0xDF	; 223
     a12:	7f 4f       	sbci	r23, 0xFF	; 255
     a14:	ce 01       	movw	r24, r28
     a16:	8b 96       	adiw	r24, 0x2b	; 43
     a18:	0e 94 8b 00 	call	0x116	; 0x116 <uid_equal>
     a1c:	88 23       	and	r24, r24
     a1e:	21 f0       	breq	.+8      	; 0xa28 <__stack+0x129>
     a20:	81 e0       	ldi	r24, 0x01	; 1
     a22:	03 c0       	rjmp	.+6      	; 0xa2a <__stack+0x12b>
     a24:	80 e0       	ldi	r24, 0x00	; 0
     a26:	01 c0       	rjmp	.+2      	; 0xa2a <__stack+0x12b>
     a28:	80 e0       	ldi	r24, 0x00	; 0
     a2a:	98 2f       	mov	r25, r24
     a2c:	91 70       	andi	r25, 0x01	; 1

		/* ---------- Lgica por estado ---------- */
		if(state==ST_IDLE){
     a2e:	11 11       	cpse	r17, r1
     a30:	3d c0       	rjmp	.+122    	; 0xaac <__stack+0x1ad>
			if(!same){
     a32:	09 f0       	breq	.+2      	; 0xa36 <__stack+0x137>
     a34:	af c0       	rjmp	.+350    	; 0xb94 <__stack+0x295>
				int8_t idx = find_card_in_eeprom(uid,n);
     a36:	6f 2d       	mov	r22, r15
     a38:	ce 01       	movw	r24, r28
     a3a:	8b 96       	adiw	r24, 0x2b	; 43
     a3c:	0e 94 d7 02 	call	0x5ae	; 0x5ae <find_card_in_eeprom>
				if(idx>=0){
     a40:	88 23       	and	r24, r24
     a42:	dc f0       	brlt	.+54     	; 0xa7a <__stack+0x17b>
					ui_msg("Acceso permitido","",0);
     a44:	40 e0       	ldi	r20, 0x00	; 0
     a46:	50 e0       	ldi	r21, 0x00	; 0
     a48:	6c e8       	ldi	r22, 0x8C	; 140
     a4a:	74 e0       	ldi	r23, 0x04	; 4
     a4c:	82 e4       	ldi	r24, 0x42	; 66
     a4e:	92 e0       	ldi	r25, 0x02	; 2
     a50:	0e 94 db 01 	call	0x3b6	; 0x3b6 <ui_msg>
			return (t >= BTN_LONG_MS);
		}
	}
	return 0;
}
static inline void led_rojo(uint8_t on){ if(on) PORTD |= (1<<LED_ROJO_PIN); else PORTD &= ~(1<<LED_ROJO_PIN); }
     a54:	8b b1       	in	r24, 0x0b	; 11
     a56:	8f 7e       	andi	r24, 0xEF	; 239
     a58:	8b b9       	out	0x0b, r24	; 11
static inline void led_verde(uint8_t on){ if(on) PORTD |= (1<<LED_VERDE_PIN); else PORTD &= ~(1<<LED_VERDE_PIN); }
     a5a:	8b b1       	in	r24, 0x0b	; 11
     a5c:	80 62       	ori	r24, 0x20	; 32
     a5e:	8b b9       	out	0x0b, r24	; 11
				int8_t idx = find_card_in_eeprom(uid,n);
				if(idx>=0){
					ui_msg("Acceso permitido","",0);
					led_rojo(0); led_verde(1);
					// Aqu podras activar un rel real si lo agregs
					delay_ms_var(OPEN_TIMEOUT_MS);
     a60:	88 e8       	ldi	r24, 0x88	; 136
     a62:	93 e1       	ldi	r25, 0x13	; 19
     a64:	0e 94 cd 01 	call	0x39a	; 0x39a <delay_ms_var>
		}
	}
	return 0;
}
static inline void led_rojo(uint8_t on){ if(on) PORTD |= (1<<LED_ROJO_PIN); else PORTD &= ~(1<<LED_ROJO_PIN); }
static inline void led_verde(uint8_t on){ if(on) PORTD |= (1<<LED_VERDE_PIN); else PORTD &= ~(1<<LED_VERDE_PIN); }
     a68:	8b b1       	in	r24, 0x0b	; 11
     a6a:	8f 7d       	andi	r24, 0xDF	; 223
     a6c:	8b b9       	out	0x0b, r24	; 11
			return (t >= BTN_LONG_MS);
		}
	}
	return 0;
}
static inline void led_rojo(uint8_t on){ if(on) PORTD |= (1<<LED_ROJO_PIN); else PORTD &= ~(1<<LED_ROJO_PIN); }
     a6e:	8b b1       	in	r24, 0x0b	; 11
     a70:	80 61       	ori	r24, 0x10	; 16
     a72:	8b b9       	out	0x0b, r24	; 11
					ui_msg("Acceso permitido","",0);
					led_rojo(0); led_verde(1);
					// Aqu podras activar un rel real si lo agregs
					delay_ms_var(OPEN_TIMEOUT_MS);
					led_verde(0); led_rojo(1);
					ui_idle();
     a74:	0e 94 62 01 	call	0x2c4	; 0x2c4 <ui_idle>
     a78:	0a c0       	rjmp	.+20     	; 0xa8e <__stack+0x18f>
					state = ST_IDLE;
					}else{
					ui_msg("Acceso denegado","",1000);
     a7a:	48 ee       	ldi	r20, 0xE8	; 232
     a7c:	53 e0       	ldi	r21, 0x03	; 3
     a7e:	6c e8       	ldi	r22, 0x8C	; 140
     a80:	74 e0       	ldi	r23, 0x04	; 4
     a82:	83 e5       	ldi	r24, 0x53	; 83
     a84:	92 e0       	ldi	r25, 0x02	; 2
     a86:	0e 94 db 01 	call	0x3b6	; 0x3b6 <ui_msg>
					ui_idle();
     a8a:	0e 94 62 01 	call	0x2c4	; 0x2c4 <ui_idle>
				}
				memcpy(last_uid,uid,n); last_n=n;
     a8e:	4f 2d       	mov	r20, r15
     a90:	50 e0       	ldi	r21, 0x00	; 0
     a92:	be 01       	movw	r22, r28
     a94:	65 5d       	subi	r22, 0xD5	; 213
     a96:	7f 4f       	sbci	r23, 0xFF	; 255
     a98:	ce 01       	movw	r24, r28
     a9a:	81 96       	adiw	r24, 0x21	; 33
     a9c:	0e 94 b8 07 	call	0xf70	; 0xf70 <memcpy>
				delay_ms_var(DISPLAY_UID_MS);
     aa0:	80 ed       	ldi	r24, 0xD0	; 208
     aa2:	97 e0       	ldi	r25, 0x07	; 7
     aa4:	0e 94 cd 01 	call	0x39a	; 0x39a <delay_ms_var>
					state = ST_IDLE;
					}else{
					ui_msg("Acceso denegado","",1000);
					ui_idle();
				}
				memcpy(last_uid,uid,n); last_n=n;
     aa8:	0f 2d       	mov	r16, r15
     aaa:	74 c0       	rjmp	.+232    	; 0xb94 <__stack+0x295>
				delay_ms_var(DISPLAY_UID_MS);
			}
		}
		else if(state==ST_PROG){
     aac:	12 30       	cpi	r17, 0x02	; 2
     aae:	51 f4       	brne	.+20     	; 0xac4 <__stack+0x1c5>
     ab0:	9f ef       	ldi	r25, 0xFF	; 255
     ab2:	a1 ee       	ldi	r26, 0xE1	; 225
     ab4:	b4 e0       	ldi	r27, 0x04	; 4
     ab6:	91 50       	subi	r25, 0x01	; 1
     ab8:	a0 40       	sbci	r26, 0x00	; 0
     aba:	b0 40       	sbci	r27, 0x00	; 0
     abc:	e1 f7       	brne	.-8      	; 0xab6 <__stack+0x1b7>
     abe:	00 c0       	rjmp	.+0      	; 0xac0 <__stack+0x1c1>
     ac0:	00 00       	nop
     ac2:	68 c0       	rjmp	.+208    	; 0xb94 <__stack+0x295>
			_delay_ms(100); // esperando eleccin ADD/DEL
		}
		else if(state==ST_WAIT_ADD){
     ac4:	13 30       	cpi	r17, 0x03	; 3
     ac6:	d9 f5       	brne	.+118    	; 0xb3e <__stack+0x23f>
			if(!same){
     ac8:	91 11       	cpse	r25, r1
     aca:	64 c0       	rjmp	.+200    	; 0xb94 <__stack+0x295>
				int8_t idx = find_card_in_eeprom(uid,n);
     acc:	6f 2d       	mov	r22, r15
     ace:	ce 01       	movw	r24, r28
     ad0:	8b 96       	adiw	r24, 0x2b	; 43
     ad2:	0e 94 d7 02 	call	0x5ae	; 0x5ae <find_card_in_eeprom>
				if(idx>=0){
     ad6:	88 23       	and	r24, r24
     ad8:	4c f0       	brlt	.+18     	; 0xaec <__stack+0x1ed>
					ui_msg("Ya existe", "No se duplica", 1200);
     ada:	40 eb       	ldi	r20, 0xB0	; 176
     adc:	54 e0       	ldi	r21, 0x04	; 4
     ade:	63 e6       	ldi	r22, 0x63	; 99
     ae0:	72 e0       	ldi	r23, 0x02	; 2
     ae2:	81 e7       	ldi	r24, 0x71	; 113
     ae4:	92 e0       	ldi	r25, 0x02	; 2
     ae6:	0e 94 db 01 	call	0x3b6	; 0x3b6 <ui_msg>
     aea:	1b c0       	rjmp	.+54     	; 0xb22 <__stack+0x223>
					}else{
					int8_t free = find_free_slot();
     aec:	0e 94 87 02 	call	0x50e	; 0x50e <find_free_slot>
					if(free<0){
     af0:	88 23       	and	r24, r24
     af2:	4c f4       	brge	.+18     	; 0xb06 <__stack+0x207>
						ui_msg("Memoria llena","",1200);
     af4:	40 eb       	ldi	r20, 0xB0	; 176
     af6:	54 e0       	ldi	r21, 0x04	; 4
     af8:	6c e8       	ldi	r22, 0x8C	; 140
     afa:	74 e0       	ldi	r23, 0x04	; 4
     afc:	8b e7       	ldi	r24, 0x7B	; 123
     afe:	92 e0       	ldi	r25, 0x02	; 2
     b00:	0e 94 db 01 	call	0x3b6	; 0x3b6 <ui_msg>
     b04:	0e c0       	rjmp	.+28     	; 0xb22 <__stack+0x223>
						}else{
						eeprom_write_slot((uint8_t)free, uid, n);
     b06:	4f 2d       	mov	r20, r15
     b08:	be 01       	movw	r22, r28
     b0a:	65 5d       	subi	r22, 0xD5	; 213
     b0c:	7f 4f       	sbci	r23, 0xFF	; 255
     b0e:	0e 94 98 03 	call	0x730	; 0x730 <eeprom_write_slot>
						ui_msg("Guardada OK","",900);
     b12:	44 e8       	ldi	r20, 0x84	; 132
     b14:	53 e0       	ldi	r21, 0x03	; 3
     b16:	6c e8       	ldi	r22, 0x8C	; 140
     b18:	74 e0       	ldi	r23, 0x04	; 4
     b1a:	89 e8       	ldi	r24, 0x89	; 137
     b1c:	92 e0       	ldi	r25, 0x02	; 2
     b1e:	0e 94 db 01 	call	0x3b6	; 0x3b6 <ui_msg>
					}
				}
				memcpy(last_uid,uid,n); last_n=n;
     b22:	4f 2d       	mov	r20, r15
     b24:	50 e0       	ldi	r21, 0x00	; 0
     b26:	be 01       	movw	r22, r28
     b28:	65 5d       	subi	r22, 0xD5	; 213
     b2a:	7f 4f       	sbci	r23, 0xFF	; 255
     b2c:	ce 01       	movw	r24, r28
     b2e:	81 96       	adiw	r24, 0x21	; 33
     b30:	0e 94 b8 07 	call	0xf70	; 0xf70 <memcpy>
				state = ST_PROG;
				ui_prog_menu();
     b34:	0e 94 77 01 	call	0x2ee	; 0x2ee <ui_prog_menu>
						}else{
						eeprom_write_slot((uint8_t)free, uid, n);
						ui_msg("Guardada OK","",900);
					}
				}
				memcpy(last_uid,uid,n); last_n=n;
     b38:	0f 2d       	mov	r16, r15
				state = ST_PROG;
     b3a:	12 e0       	ldi	r17, 0x02	; 2
     b3c:	2b c0       	rjmp	.+86     	; 0xb94 <__stack+0x295>
				ui_prog_menu();
			}
		}
		else if(state==ST_WAIT_DEL){
     b3e:	14 30       	cpi	r17, 0x04	; 4
     b40:	49 f5       	brne	.+82     	; 0xb94 <__stack+0x295>
			if(!same){
     b42:	91 11       	cpse	r25, r1
     b44:	27 c0       	rjmp	.+78     	; 0xb94 <__stack+0x295>
				int8_t idx = find_card_in_eeprom(uid,n);
     b46:	6f 2d       	mov	r22, r15
     b48:	ce 01       	movw	r24, r28
     b4a:	8b 96       	adiw	r24, 0x2b	; 43
     b4c:	0e 94 d7 02 	call	0x5ae	; 0x5ae <find_card_in_eeprom>
				if(idx<0){
     b50:	88 23       	and	r24, r24
     b52:	4c f4       	brge	.+18     	; 0xb66 <__stack+0x267>
					ui_msg("No encontrada","",1200);
     b54:	40 eb       	ldi	r20, 0xB0	; 176
     b56:	54 e0       	ldi	r21, 0x04	; 4
     b58:	6c e8       	ldi	r22, 0x8C	; 140
     b5a:	74 e0       	ldi	r23, 0x04	; 4
     b5c:	85 e9       	ldi	r24, 0x95	; 149
     b5e:	92 e0       	ldi	r25, 0x02	; 2
     b60:	0e 94 db 01 	call	0x3b6	; 0x3b6 <ui_msg>
     b64:	0a c0       	rjmp	.+20     	; 0xb7a <__stack+0x27b>
					}else{
					eeprom_clear_slot((uint8_t)idx);
     b66:	0e 94 c7 03 	call	0x78e	; 0x78e <eeprom_clear_slot>
					ui_msg("Borrada OK","",900);
     b6a:	44 e8       	ldi	r20, 0x84	; 132
     b6c:	53 e0       	ldi	r21, 0x03	; 3
     b6e:	6c e8       	ldi	r22, 0x8C	; 140
     b70:	74 e0       	ldi	r23, 0x04	; 4
     b72:	83 ea       	ldi	r24, 0xA3	; 163
     b74:	92 e0       	ldi	r25, 0x02	; 2
     b76:	0e 94 db 01 	call	0x3b6	; 0x3b6 <ui_msg>
				}
				memcpy(last_uid,uid,n); last_n=n;
     b7a:	4f 2d       	mov	r20, r15
     b7c:	50 e0       	ldi	r21, 0x00	; 0
     b7e:	be 01       	movw	r22, r28
     b80:	65 5d       	subi	r22, 0xD5	; 213
     b82:	7f 4f       	sbci	r23, 0xFF	; 255
     b84:	ce 01       	movw	r24, r28
     b86:	81 96       	adiw	r24, 0x21	; 33
     b88:	0e 94 b8 07 	call	0xf70	; 0xf70 <memcpy>
				state = ST_PROG;
				ui_prog_menu();
     b8c:	0e 94 77 01 	call	0x2ee	; 0x2ee <ui_prog_menu>
					ui_msg("No encontrada","",1200);
					}else{
					eeprom_clear_slot((uint8_t)idx);
					ui_msg("Borrada OK","",900);
				}
				memcpy(last_uid,uid,n); last_n=n;
     b90:	0f 2d       	mov	r16, r15
				state = ST_PROG;
     b92:	12 e0       	ldi	r17, 0x02	; 2
     b94:	ef ef       	ldi	r30, 0xFF	; 255
     b96:	f0 e7       	ldi	r31, 0x70	; 112
     b98:	22 e0       	ldi	r18, 0x02	; 2
     b9a:	e1 50       	subi	r30, 0x01	; 1
     b9c:	f0 40       	sbci	r31, 0x00	; 0
     b9e:	20 40       	sbci	r18, 0x00	; 0
     ba0:	e1 f7       	brne	.-8      	; 0xb9a <__stack+0x29b>
     ba2:	00 c0       	rjmp	.+0      	; 0xba4 <__stack+0x2a5>
     ba4:	00 00       	nop
     ba6:	af ce       	rjmp	.-674    	; 0x906 <__stack+0x7>

00000ba8 <mfrc522_resetPinInit>:
				}
				uart_print("\r\n");
			}
		}
	}
}
     ba8:	84 b1       	in	r24, 0x04	; 4
     baa:	82 60       	ori	r24, 0x02	; 2
     bac:	84 b9       	out	0x04, r24	; 4
     bae:	85 b1       	in	r24, 0x05	; 5
     bb0:	8d 7f       	andi	r24, 0xFD	; 253
     bb2:	85 b9       	out	0x05, r24	; 5
     bb4:	8f e3       	ldi	r24, 0x3F	; 63
     bb6:	9c e9       	ldi	r25, 0x9C	; 156
     bb8:	01 97       	sbiw	r24, 0x01	; 1
     bba:	f1 f7       	brne	.-4      	; 0xbb8 <mfrc522_resetPinInit+0x10>
     bbc:	00 c0       	rjmp	.+0      	; 0xbbe <mfrc522_resetPinInit+0x16>
     bbe:	00 00       	nop
     bc0:	85 b1       	in	r24, 0x05	; 5
     bc2:	82 60       	ori	r24, 0x02	; 2
     bc4:	85 b9       	out	0x05, r24	; 5
     bc6:	9f ef       	ldi	r25, 0xFF	; 255
     bc8:	20 e7       	ldi	r18, 0x70	; 112
     bca:	82 e0       	ldi	r24, 0x02	; 2
     bcc:	91 50       	subi	r25, 0x01	; 1
     bce:	20 40       	sbci	r18, 0x00	; 0
     bd0:	80 40       	sbci	r24, 0x00	; 0
     bd2:	e1 f7       	brne	.-8      	; 0xbcc <mfrc522_resetPinInit+0x24>
     bd4:	00 c0       	rjmp	.+0      	; 0xbd6 <mfrc522_resetPinInit+0x2e>
     bd6:	00 00       	nop
     bd8:	08 95       	ret

00000bda <mfrc522_write>:
     bda:	cf 93       	push	r28
     bdc:	c6 2f       	mov	r28, r22
     bde:	95 b1       	in	r25, 0x05	; 5
     be0:	9b 7f       	andi	r25, 0xFB	; 251
     be2:	95 b9       	out	0x05, r25	; 5
     be4:	90 e0       	ldi	r25, 0x00	; 0
     be6:	88 0f       	add	r24, r24
     be8:	99 1f       	adc	r25, r25
     bea:	8e 77       	andi	r24, 0x7E	; 126
     bec:	99 27       	eor	r25, r25
     bee:	0e 94 62 07 	call	0xec4	; 0xec4 <spi_transfer>
     bf2:	8c 2f       	mov	r24, r28
     bf4:	90 e0       	ldi	r25, 0x00	; 0
     bf6:	0e 94 62 07 	call	0xec4	; 0xec4 <spi_transfer>
     bfa:	85 b1       	in	r24, 0x05	; 5
     bfc:	84 60       	ori	r24, 0x04	; 4
     bfe:	85 b9       	out	0x05, r24	; 5
     c00:	cf 91       	pop	r28
     c02:	08 95       	ret

00000c04 <mfrc522_read>:
     c04:	95 b1       	in	r25, 0x05	; 5
     c06:	9b 7f       	andi	r25, 0xFB	; 251
     c08:	95 b9       	out	0x05, r25	; 5
     c0a:	90 e0       	ldi	r25, 0x00	; 0
     c0c:	88 0f       	add	r24, r24
     c0e:	99 1f       	adc	r25, r25
     c10:	8e 77       	andi	r24, 0x7E	; 126
     c12:	99 27       	eor	r25, r25
     c14:	80 68       	ori	r24, 0x80	; 128
     c16:	0e 94 62 07 	call	0xec4	; 0xec4 <spi_transfer>
     c1a:	80 e0       	ldi	r24, 0x00	; 0
     c1c:	90 e0       	ldi	r25, 0x00	; 0
     c1e:	0e 94 62 07 	call	0xec4	; 0xec4 <spi_transfer>
     c22:	95 b1       	in	r25, 0x05	; 5
     c24:	94 60       	ori	r25, 0x04	; 4
     c26:	95 b9       	out	0x05, r25	; 5
     c28:	08 95       	ret

00000c2a <mfrc522_setBitMask>:
     c2a:	cf 93       	push	r28
     c2c:	df 93       	push	r29
     c2e:	d8 2f       	mov	r29, r24
     c30:	c6 2f       	mov	r28, r22
     c32:	0e 94 02 06 	call	0xc04	; 0xc04 <mfrc522_read>
     c36:	68 2f       	mov	r22, r24
     c38:	6c 2b       	or	r22, r28
     c3a:	8d 2f       	mov	r24, r29
     c3c:	0e 94 ed 05 	call	0xbda	; 0xbda <mfrc522_write>
     c40:	df 91       	pop	r29
     c42:	cf 91       	pop	r28
     c44:	08 95       	ret

00000c46 <mfrc522_clearBitMask>:
     c46:	cf 93       	push	r28
     c48:	df 93       	push	r29
     c4a:	d8 2f       	mov	r29, r24
     c4c:	c6 2f       	mov	r28, r22
     c4e:	0e 94 02 06 	call	0xc04	; 0xc04 <mfrc522_read>
     c52:	c0 95       	com	r28
     c54:	6c 2f       	mov	r22, r28
     c56:	68 23       	and	r22, r24
     c58:	8d 2f       	mov	r24, r29
     c5a:	0e 94 ed 05 	call	0xbda	; 0xbda <mfrc522_write>
     c5e:	df 91       	pop	r29
     c60:	cf 91       	pop	r28
     c62:	08 95       	ret

00000c64 <mfrc522_printRegister>:
     c64:	cf 93       	push	r28
     c66:	c6 2f       	mov	r28, r22
     c68:	0e 94 81 07 	call	0xf02	; 0xf02 <uart_print>
     c6c:	88 e7       	ldi	r24, 0x78	; 120
     c6e:	91 e0       	ldi	r25, 0x01	; 1
     c70:	0e 94 81 07 	call	0xf02	; 0xf02 <uart_print>
     c74:	8c 2f       	mov	r24, r28
     c76:	0e 94 02 06 	call	0xc04	; 0xc04 <mfrc522_read>
     c7a:	90 e0       	ldi	r25, 0x00	; 0
     c7c:	0e 94 8e 07 	call	0xf1c	; 0xf1c <uart_print_hex>
     c80:	8a e8       	ldi	r24, 0x8A	; 138
     c82:	94 e0       	ldi	r25, 0x04	; 4
     c84:	0e 94 81 07 	call	0xf02	; 0xf02 <uart_print>
     c88:	cf 91       	pop	r28
     c8a:	08 95       	ret

00000c8c <mfrc522_reset>:
     c8c:	8e ea       	ldi	r24, 0xAE	; 174
     c8e:	92 e0       	ldi	r25, 0x02	; 2
     c90:	0e 94 81 07 	call	0xf02	; 0xf02 <uart_print>
     c94:	60 e1       	ldi	r22, 0x10	; 16
     c96:	81 e0       	ldi	r24, 0x01	; 1
     c98:	0e 94 ed 05 	call	0xbda	; 0xbda <mfrc522_write>
     c9c:	2f ef       	ldi	r18, 0xFF	; 255
     c9e:	80 e7       	ldi	r24, 0x70	; 112
     ca0:	92 e0       	ldi	r25, 0x02	; 2
     ca2:	21 50       	subi	r18, 0x01	; 1
     ca4:	80 40       	sbci	r24, 0x00	; 0
     ca6:	90 40       	sbci	r25, 0x00	; 0
     ca8:	e1 f7       	brne	.-8      	; 0xca2 <mfrc522_reset+0x16>
     caa:	00 c0       	rjmp	.+0      	; 0xcac <mfrc522_reset+0x20>
     cac:	00 00       	nop
     cae:	08 95       	ret

00000cb0 <mfrc522_debug_init>:
     cb0:	0e 94 46 06 	call	0xc8c	; 0xc8c <mfrc522_reset>
     cb4:	8e eb       	ldi	r24, 0xBE	; 190
     cb6:	92 e0       	ldi	r25, 0x02	; 2
     cb8:	0e 94 81 07 	call	0xf02	; 0xf02 <uart_print>
     cbc:	6d e8       	ldi	r22, 0x8D	; 141
     cbe:	8a e2       	ldi	r24, 0x2A	; 42
     cc0:	0e 94 ed 05 	call	0xbda	; 0xbda <mfrc522_write>
     cc4:	6e e3       	ldi	r22, 0x3E	; 62
     cc6:	8b e2       	ldi	r24, 0x2B	; 43
     cc8:	0e 94 ed 05 	call	0xbda	; 0xbda <mfrc522_write>
     ccc:	6e e1       	ldi	r22, 0x1E	; 30
     cce:	8d e2       	ldi	r24, 0x2D	; 45
     cd0:	0e 94 ed 05 	call	0xbda	; 0xbda <mfrc522_write>
     cd4:	60 e0       	ldi	r22, 0x00	; 0
     cd6:	8c e2       	ldi	r24, 0x2C	; 44
     cd8:	0e 94 ed 05 	call	0xbda	; 0xbda <mfrc522_write>
     cdc:	60 e4       	ldi	r22, 0x40	; 64
     cde:	85 e1       	ldi	r24, 0x15	; 21
     ce0:	0e 94 ed 05 	call	0xbda	; 0xbda <mfrc522_write>
     ce4:	6d e3       	ldi	r22, 0x3D	; 61
     ce6:	81 e1       	ldi	r24, 0x11	; 17
     ce8:	0e 94 ed 05 	call	0xbda	; 0xbda <mfrc522_write>
     cec:	6f e7       	ldi	r22, 0x7F	; 127
     cee:	86 e2       	ldi	r24, 0x26	; 38
     cf0:	0e 94 ed 05 	call	0xbda	; 0xbda <mfrc522_write>
     cf4:	63 e8       	ldi	r22, 0x83	; 131
     cf6:	84 e1       	ldi	r24, 0x14	; 20
     cf8:	0e 94 ed 05 	call	0xbda	; 0xbda <mfrc522_write>
     cfc:	8f e1       	ldi	r24, 0x1F	; 31
     cfe:	9e e4       	ldi	r25, 0x4E	; 78
     d00:	01 97       	sbiw	r24, 0x01	; 1
     d02:	f1 f7       	brne	.-4      	; 0xd00 <mfrc522_debug_init+0x50>
     d04:	00 c0       	rjmp	.+0      	; 0xd06 <mfrc522_debug_init+0x56>
     d06:	00 00       	nop
     d08:	8c ee       	ldi	r24, 0xEC	; 236
     d0a:	92 e0       	ldi	r25, 0x02	; 2
     d0c:	0e 94 81 07 	call	0xf02	; 0xf02 <uart_print>
     d10:	67 e3       	ldi	r22, 0x37	; 55
     d12:	8f e0       	ldi	r24, 0x0F	; 15
     d14:	93 e0       	ldi	r25, 0x03	; 3
     d16:	0e 94 32 06 	call	0xc64	; 0xc64 <mfrc522_printRegister>
     d1a:	64 e1       	ldi	r22, 0x14	; 20
     d1c:	8a e1       	ldi	r24, 0x1A	; 26
     d1e:	93 e0       	ldi	r25, 0x03	; 3
     d20:	0e 94 32 06 	call	0xc64	; 0xc64 <mfrc522_printRegister>
     d24:	65 e1       	ldi	r22, 0x15	; 21
     d26:	87 e2       	ldi	r24, 0x27	; 39
     d28:	93 e0       	ldi	r25, 0x03	; 3
     d2a:	0e 94 32 06 	call	0xc64	; 0xc64 <mfrc522_printRegister>
     d2e:	61 e1       	ldi	r22, 0x11	; 17
     d30:	81 e3       	ldi	r24, 0x31	; 49
     d32:	93 e0       	ldi	r25, 0x03	; 3
     d34:	0e 94 32 06 	call	0xc64	; 0xc64 <mfrc522_printRegister>
     d38:	6a e2       	ldi	r22, 0x2A	; 42
     d3a:	80 e3       	ldi	r24, 0x30	; 48
     d3c:	93 e0       	ldi	r25, 0x03	; 3
     d3e:	0e 94 32 06 	call	0xc64	; 0xc64 <mfrc522_printRegister>
     d42:	6b e2       	ldi	r22, 0x2B	; 43
     d44:	89 e3       	ldi	r24, 0x39	; 57
     d46:	93 e0       	ldi	r25, 0x03	; 3
     d48:	0e 94 32 06 	call	0xc64	; 0xc64 <mfrc522_printRegister>
     d4c:	6c e2       	ldi	r22, 0x2C	; 44
     d4e:	87 e4       	ldi	r24, 0x47	; 71
     d50:	93 e0       	ldi	r25, 0x03	; 3
     d52:	0e 94 32 06 	call	0xc64	; 0xc64 <mfrc522_printRegister>
     d56:	6d e2       	ldi	r22, 0x2D	; 45
     d58:	83 e5       	ldi	r24, 0x53	; 83
     d5a:	93 e0       	ldi	r25, 0x03	; 3
     d5c:	0e 94 32 06 	call	0xc64	; 0xc64 <mfrc522_printRegister>
     d60:	66 e2       	ldi	r22, 0x26	; 38
     d62:	8f e5       	ldi	r24, 0x5F	; 95
     d64:	93 e0       	ldi	r25, 0x03	; 3
     d66:	0e 94 32 06 	call	0xc64	; 0xc64 <mfrc522_printRegister>
     d6a:	08 95       	ret

00000d6c <mfrc522_standard>:


void mfrc522_standard(uint8_t *card_uid) {
     d6c:	0f 93       	push	r16
     d6e:	1f 93       	push	r17
     d70:	cf 93       	push	r28
     d72:	df 93       	push	r29
     d74:	8c 01       	movw	r16, r24
	uint8_t bufferLength = sizeof(buffer);
	uint8_t backBits = 0;
	uint8_t status;
	
	// Preparar registro de bits y FIFO
	mfrc522_write(BitFramingReg, 0x07); // 7 bits para REQA
     d76:	67 e0       	ldi	r22, 0x07	; 7
     d78:	8d e0       	ldi	r24, 0x0D	; 13
     d7a:	0e 94 ed 05 	call	0xbda	; 0xbda <mfrc522_write>
	mfrc522_write(CommIrqReg, 0x7F);    // Limpiar IRQ
     d7e:	6f e7       	ldi	r22, 0x7F	; 127
     d80:	84 e0       	ldi	r24, 0x04	; 4
     d82:	0e 94 ed 05 	call	0xbda	; 0xbda <mfrc522_write>
	mfrc522_write(FIFOLevelReg, 0x80);  // Limpiar FIFO
     d86:	60 e8       	ldi	r22, 0x80	; 128
     d88:	8a e0       	ldi	r24, 0x0A	; 10
     d8a:	0e 94 ed 05 	call	0xbda	; 0xbda <mfrc522_write>

	uart_print("\r\n=== Enviando REQA ===\r\n");
     d8e:	88 e6       	ldi	r24, 0x68	; 104
     d90:	93 e0       	ldi	r25, 0x03	; 3
     d92:	0e 94 81 07 	call	0xf02	; 0xf02 <uart_print>
	// Escribir FIFO
	for (uint8_t i=0; i<1; i++) {
     d96:	c0 e0       	ldi	r28, 0x00	; 0
     d98:	05 c0       	rjmp	.+10     	; 0xda4 <mfrc522_standard+0x38>
		mfrc522_write(FIFODataReg, req[i]);
     d9a:	66 e2       	ldi	r22, 0x26	; 38
     d9c:	89 e0       	ldi	r24, 0x09	; 9
     d9e:	0e 94 ed 05 	call	0xbda	; 0xbda <mfrc522_write>
	mfrc522_write(CommIrqReg, 0x7F);    // Limpiar IRQ
	mfrc522_write(FIFOLevelReg, 0x80);  // Limpiar FIFO

	uart_print("\r\n=== Enviando REQA ===\r\n");
	// Escribir FIFO
	for (uint8_t i=0; i<1; i++) {
     da2:	cf 5f       	subi	r28, 0xFF	; 255
     da4:	cc 23       	and	r28, r28
     da6:	c9 f3       	breq	.-14     	; 0xd9a <mfrc522_standard+0x2e>
		mfrc522_write(FIFODataReg, req[i]);
	}

	// Iniciar transaccion
	mfrc522_write(CommandReg, PCD_TRANSCEIVE);
     da8:	6c e0       	ldi	r22, 0x0C	; 12
     daa:	81 e0       	ldi	r24, 0x01	; 1
     dac:	0e 94 ed 05 	call	0xbda	; 0xbda <mfrc522_write>
	mfrc522_setBitMask(BitFramingReg, 0x80); // StartSend
     db0:	60 e8       	ldi	r22, 0x80	; 128
     db2:	8d e0       	ldi	r24, 0x0D	; 13
     db4:	0e 94 15 06 	call	0xc2a	; 0xc2a <mfrc522_setBitMask>

	// Esperar IRQ (RxIRq o Timeout)
	uint16_t count = 1000; // Reducir el tiempo de espera
     db8:	c8 ee       	ldi	r28, 0xE8	; 232
     dba:	d3 e0       	ldi	r29, 0x03	; 3
	uint8_t irq;
	do {
		irq = mfrc522_read(CommIrqReg);
     dbc:	84 e0       	ldi	r24, 0x04	; 4
     dbe:	0e 94 02 06 	call	0xc04	; 0xc04 <mfrc522_read>
		count--;
     dc2:	21 97       	sbiw	r28, 0x01	; 1
	} while (!(irq & 0x30) && count); // RxIRq o IdleIRq
     dc4:	80 73       	andi	r24, 0x30	; 48
     dc6:	11 f4       	brne	.+4      	; 0xdcc <mfrc522_standard+0x60>
     dc8:	20 97       	sbiw	r28, 0x00	; 0
     dca:	c1 f7       	brne	.-16     	; 0xdbc <mfrc522_standard+0x50>

	mfrc522_clearBitMask(BitFramingReg, 0x80);
     dcc:	60 e8       	ldi	r22, 0x80	; 128
     dce:	8d e0       	ldi	r24, 0x0D	; 13
     dd0:	0e 94 23 06 	call	0xc46	; 0xc46 <mfrc522_clearBitMask>

	if (count == 0) {
     dd4:	cd 2b       	or	r28, r29
     dd6:	51 f4       	brne	.+20     	; 0xdec <mfrc522_standard+0x80>
		uart_print("Timeout REQA, tarjeta no detectada\r\n");
     dd8:	88 ef       	ldi	r24, 0xF8	; 248
     dda:	93 e0       	ldi	r25, 0x03	; 3
     ddc:	0e 94 81 07 	call	0xf02	; 0xf02 <uart_print>
		memset(card_uid, 0, 16);
     de0:	80 e1       	ldi	r24, 0x10	; 16
     de2:	f8 01       	movw	r30, r16
     de4:	11 92       	st	Z+, r1
     de6:	8a 95       	dec	r24
     de8:	e9 f7       	brne	.-6      	; 0xde4 <mfrc522_standard+0x78>
     dea:	5c c0       	rjmp	.+184    	; 0xea4 <mfrc522_standard+0x138>
		} else {
		uint8_t fifoLevel = mfrc522_read(FIFOLevelReg);
     dec:	8a e0       	ldi	r24, 0x0A	; 10
     dee:	0e 94 02 06 	call	0xc04	; 0xc04 <mfrc522_read>
     df2:	d8 2f       	mov	r29, r24
		for (uint8_t i=0; i<fifoLevel; i++) {
     df4:	c0 e0       	ldi	r28, 0x00	; 0
     df6:	04 c0       	rjmp	.+8      	; 0xe00 <mfrc522_standard+0x94>
			uint8_t val = mfrc522_read(FIFODataReg);
     df8:	89 e0       	ldi	r24, 0x09	; 9
     dfa:	0e 94 02 06 	call	0xc04	; 0xc04 <mfrc522_read>
	if (count == 0) {
		uart_print("Timeout REQA, tarjeta no detectada\r\n");
		memset(card_uid, 0, 16);
		} else {
		uint8_t fifoLevel = mfrc522_read(FIFOLevelReg);
		for (uint8_t i=0; i<fifoLevel; i++) {
     dfe:	cf 5f       	subi	r28, 0xFF	; 255
     e00:	cd 17       	cp	r28, r29
     e02:	d0 f3       	brcs	.-12     	; 0xdf8 <mfrc522_standard+0x8c>
				buffer[i] = val;
			}
		}
		
		// Si hay datos, intentar leer el UID
		if (fifoLevel > 0) {
     e04:	dd 23       	and	r29, r29
     e06:	09 f4       	brne	.+2      	; 0xe0a <mfrc522_standard+0x9e>
     e08:	4d c0       	rjmp	.+154    	; 0xea4 <mfrc522_standard+0x138>
			uart_print("Tarjeta detectada! Intentando leer UID...\r\n");
     e0a:	81 e6       	ldi	r24, 0x61	; 97
     e0c:	94 e0       	ldi	r25, 0x04	; 4
     e0e:	0e 94 81 07 	call	0xf02	; 0xf02 <uart_print>
			
			// Anticollision
			mfrc522_write(BitFramingReg, 0x00);
     e12:	60 e0       	ldi	r22, 0x00	; 0
     e14:	8d e0       	ldi	r24, 0x0D	; 13
     e16:	0e 94 ed 05 	call	0xbda	; 0xbda <mfrc522_write>
			mfrc522_write(CommIrqReg, 0x7F);
     e1a:	6f e7       	ldi	r22, 0x7F	; 127
     e1c:	84 e0       	ldi	r24, 0x04	; 4
     e1e:	0e 94 ed 05 	call	0xbda	; 0xbda <mfrc522_write>
			mfrc522_write(FIFOLevelReg, 0x80);
     e22:	60 e8       	ldi	r22, 0x80	; 128
     e24:	8a e0       	ldi	r24, 0x0A	; 10
     e26:	0e 94 ed 05 	call	0xbda	; 0xbda <mfrc522_write>
			
			// Escribir comando Anticollision en FIFO
			mfrc522_write(FIFODataReg, PICC_ANTICOLL);
     e2a:	63 e9       	ldi	r22, 0x93	; 147
     e2c:	89 e0       	ldi	r24, 0x09	; 9
     e2e:	0e 94 ed 05 	call	0xbda	; 0xbda <mfrc522_write>
			mfrc522_write(FIFODataReg, 0x20); // NVB - Number of Valid Bits
     e32:	60 e2       	ldi	r22, 0x20	; 32
     e34:	89 e0       	ldi	r24, 0x09	; 9
     e36:	0e 94 ed 05 	call	0xbda	; 0xbda <mfrc522_write>
			
			// Iniciar transaccion
			mfrc522_write(CommandReg, PCD_TRANSCEIVE);
     e3a:	6c e0       	ldi	r22, 0x0C	; 12
     e3c:	81 e0       	ldi	r24, 0x01	; 1
     e3e:	0e 94 ed 05 	call	0xbda	; 0xbda <mfrc522_write>
			mfrc522_setBitMask(BitFramingReg, 0x80); // StartSend
     e42:	60 e8       	ldi	r22, 0x80	; 128
     e44:	8d e0       	ldi	r24, 0x0D	; 13
     e46:	0e 94 15 06 	call	0xc2a	; 0xc2a <mfrc522_setBitMask>
			
			// Esperar IRQ
			count = 1000;
     e4a:	c8 ee       	ldi	r28, 0xE8	; 232
     e4c:	d3 e0       	ldi	r29, 0x03	; 3
			do {
				irq = mfrc522_read(CommIrqReg);
     e4e:	84 e0       	ldi	r24, 0x04	; 4
     e50:	0e 94 02 06 	call	0xc04	; 0xc04 <mfrc522_read>
				count--;
     e54:	21 97       	sbiw	r28, 0x01	; 1
			} while (!(irq & 0x30) && count);
     e56:	80 73       	andi	r24, 0x30	; 48
     e58:	11 f4       	brne	.+4      	; 0xe5e <mfrc522_standard+0xf2>
     e5a:	20 97       	sbiw	r28, 0x00	; 0
     e5c:	c1 f7       	brne	.-16     	; 0xe4e <mfrc522_standard+0xe2>
			
			mfrc522_clearBitMask(BitFramingReg, 0x80);
     e5e:	60 e8       	ldi	r22, 0x80	; 128
     e60:	8d e0       	ldi	r24, 0x0D	; 13
     e62:	0e 94 23 06 	call	0xc46	; 0xc46 <mfrc522_clearBitMask>
			
			if (count == 0) {
     e66:	cd 2b       	or	r28, r29
     e68:	29 f4       	brne	.+10     	; 0xe74 <mfrc522_standard+0x108>
				uart_print("Timeout Anticollision\r\n");
     e6a:	8d e8       	ldi	r24, 0x8D	; 141
     e6c:	94 e0       	ldi	r25, 0x04	; 4
     e6e:	0e 94 81 07 	call	0xf02	; 0xf02 <uart_print>
     e72:	18 c0       	rjmp	.+48     	; 0xea4 <mfrc522_standard+0x138>
				} else {
				fifoLevel = mfrc522_read(FIFOLevelReg);
     e74:	8a e0       	ldi	r24, 0x0A	; 10
     e76:	0e 94 02 06 	call	0xc04	; 0xc04 <mfrc522_read>
     e7a:	d8 2f       	mov	r29, r24
				uart_print("UID leido!");
     e7c:	81 eb       	ldi	r24, 0xB1	; 177
     e7e:	94 e0       	ldi	r25, 0x04	; 4
     e80:	0e 94 81 07 	call	0xf02	; 0xf02 <uart_print>
				for (uint8_t i=0; i<fifoLevel; i++) {
     e84:	c0 e0       	ldi	r28, 0x00	; 0
     e86:	08 c0       	rjmp	.+16     	; 0xe98 <mfrc522_standard+0x12c>
					uint8_t val = mfrc522_read(FIFODataReg);
     e88:	89 e0       	ldi	r24, 0x09	; 9
     e8a:	0e 94 02 06 	call	0xc04	; 0xc04 <mfrc522_read>
					//uart_print_hex(val);  Si es necesario imprimirlo, sacar comentario.
					//uart_print(" ");
					card_uid[i] = val;
     e8e:	f8 01       	movw	r30, r16
     e90:	ec 0f       	add	r30, r28
     e92:	f1 1d       	adc	r31, r1
     e94:	80 83       	st	Z, r24
			if (count == 0) {
				uart_print("Timeout Anticollision\r\n");
				} else {
				fifoLevel = mfrc522_read(FIFOLevelReg);
				uart_print("UID leido!");
				for (uint8_t i=0; i<fifoLevel; i++) {
     e96:	cf 5f       	subi	r28, 0xFF	; 255
     e98:	cd 17       	cp	r28, r29
     e9a:	b0 f3       	brcs	.-20     	; 0xe88 <mfrc522_standard+0x11c>
					uint8_t val = mfrc522_read(FIFODataReg);
					//uart_print_hex(val);  Si es necesario imprimirlo, sacar comentario.
					//uart_print(" ");
					card_uid[i] = val;
				}
				uart_print("\r\n");
     e9c:	8a e8       	ldi	r24, 0x8A	; 138
     e9e:	94 e0       	ldi	r25, 0x04	; 4
     ea0:	0e 94 81 07 	call	0xf02	; 0xf02 <uart_print>
			}
		}
	}
}
     ea4:	df 91       	pop	r29
     ea6:	cf 91       	pop	r28
     ea8:	1f 91       	pop	r17
     eaa:	0f 91       	pop	r16
     eac:	08 95       	ret

00000eae <spi_init>:

#ifndef SPI_C
#define SPI_C

void spi_init(void) {
	DDRB |= (1<<PB2)|(1<<PB3)|(1<<PB5); // SS, MOSI, SCK salidas
     eae:	84 b1       	in	r24, 0x04	; 4
     eb0:	8c 62       	ori	r24, 0x2C	; 44
     eb2:	84 b9       	out	0x04, r24	; 4
	DDRB &= ~(1<<PB4); // MISO entrada
     eb4:	84 b1       	in	r24, 0x04	; 4
     eb6:	8f 7e       	andi	r24, 0xEF	; 239
     eb8:	84 b9       	out	0x04, r24	; 4
	SPCR = (1<<SPE)|(1<<MSTR);
     eba:	80 e5       	ldi	r24, 0x50	; 80
     ebc:	8c bd       	out	0x2c, r24	; 44
	SPSR = (1<<SPI2X); // fosc/8
     ebe:	81 e0       	ldi	r24, 0x01	; 1
     ec0:	8d bd       	out	0x2d, r24	; 45
     ec2:	08 95       	ret

00000ec4 <spi_transfer>:
}

uint8_t spi_transfer(uint8_t data) {
	SPDR = data;
     ec4:	8e bd       	out	0x2e, r24	; 46
	while(!(SPSR & (1<<SPIF)));
     ec6:	0d b4       	in	r0, 0x2d	; 45
     ec8:	07 fe       	sbrs	r0, 7
     eca:	fd cf       	rjmp	.-6      	; 0xec6 <spi_transfer+0x2>
	return SPDR;
     ecc:	8e b5       	in	r24, 0x2e	; 46
}
     ece:	08 95       	ret

00000ed0 <uart_init>:

#ifndef UART_C
#define UART_C

void uart_init(unsigned int ubrr) {
	UBRR0H = (unsigned char)(ubrr>>8);
     ed0:	90 93 c5 00 	sts	0x00C5, r25	; 0x8000c5 <__TEXT_REGION_LENGTH__+0x7f80c5>
	UBRR0L = (unsigned char)ubrr;
     ed4:	80 93 c4 00 	sts	0x00C4, r24	; 0x8000c4 <__TEXT_REGION_LENGTH__+0x7f80c4>
	UCSR0B = (1<<TXEN0) | (1<<RXEN0);
     ed8:	88 e1       	ldi	r24, 0x18	; 24
     eda:	80 93 c1 00 	sts	0x00C1, r24	; 0x8000c1 <__TEXT_REGION_LENGTH__+0x7f80c1>
	UCSR0C = (1<<UCSZ01) | (1<<UCSZ00);
     ede:	86 e0       	ldi	r24, 0x06	; 6
     ee0:	80 93 c2 00 	sts	0x00C2, r24	; 0x8000c2 <__TEXT_REGION_LENGTH__+0x7f80c2>
     ee4:	08 95       	ret

00000ee6 <uart_receive>:
}

char uart_receive(void) {
	while (!(UCSR0A & (1<<RXC0)));
     ee6:	80 91 c0 00 	lds	r24, 0x00C0	; 0x8000c0 <__TEXT_REGION_LENGTH__+0x7f80c0>
     eea:	88 23       	and	r24, r24
     eec:	e4 f7       	brge	.-8      	; 0xee6 <uart_receive>
	return UDR0;
     eee:	80 91 c6 00 	lds	r24, 0x00C6	; 0x8000c6 <__TEXT_REGION_LENGTH__+0x7f80c6>
}
     ef2:	08 95       	ret

00000ef4 <uart_send>:

void uart_send(char c) {
	while (!(UCSR0A & (1<<UDRE0)));
     ef4:	90 91 c0 00 	lds	r25, 0x00C0	; 0x8000c0 <__TEXT_REGION_LENGTH__+0x7f80c0>
     ef8:	95 ff       	sbrs	r25, 5
     efa:	fc cf       	rjmp	.-8      	; 0xef4 <uart_send>
	UDR0 = c;
     efc:	80 93 c6 00 	sts	0x00C6, r24	; 0x8000c6 <__TEXT_REGION_LENGTH__+0x7f80c6>
     f00:	08 95       	ret

00000f02 <uart_print>:
}

void uart_print(const char *s) {
     f02:	cf 93       	push	r28
     f04:	df 93       	push	r29
     f06:	ec 01       	movw	r28, r24
	while (*s) uart_send(*s++);
     f08:	03 c0       	rjmp	.+6      	; 0xf10 <uart_print+0xe>
     f0a:	21 96       	adiw	r28, 0x01	; 1
     f0c:	0e 94 7a 07 	call	0xef4	; 0xef4 <uart_send>
     f10:	88 81       	ld	r24, Y
     f12:	81 11       	cpse	r24, r1
     f14:	fa cf       	rjmp	.-12     	; 0xf0a <uart_print+0x8>
}
     f16:	df 91       	pop	r29
     f18:	cf 91       	pop	r28
     f1a:	08 95       	ret

00000f1c <uart_print_hex>:

void uart_print_hex(uint8_t val) {
     f1c:	0f 93       	push	r16
     f1e:	1f 93       	push	r17
     f20:	cf 93       	push	r28
     f22:	df 93       	push	r29
     f24:	00 d0       	rcall	.+0      	; 0xf26 <uart_print_hex+0xa>
     f26:	00 d0       	rcall	.+0      	; 0xf28 <uart_print_hex+0xc>
     f28:	00 d0       	rcall	.+0      	; 0xf2a <uart_print_hex+0xe>
     f2a:	cd b7       	in	r28, 0x3d	; 61
     f2c:	de b7       	in	r29, 0x3e	; 62
	char buf[6];
	sprintf(buf, "0x%02X", val);
     f2e:	1f 92       	push	r1
     f30:	8f 93       	push	r24
     f32:	8c eb       	ldi	r24, 0xBC	; 188
     f34:	94 e0       	ldi	r25, 0x04	; 4
     f36:	9f 93       	push	r25
     f38:	8f 93       	push	r24
     f3a:	8e 01       	movw	r16, r28
     f3c:	0f 5f       	subi	r16, 0xFF	; 255
     f3e:	1f 4f       	sbci	r17, 0xFF	; 255
     f40:	1f 93       	push	r17
     f42:	0f 93       	push	r16
     f44:	0e 94 cf 07 	call	0xf9e	; 0xf9e <sprintf>
	uart_print(buf);
     f48:	c8 01       	movw	r24, r16
     f4a:	0e 94 81 07 	call	0xf02	; 0xf02 <uart_print>
}
     f4e:	0f 90       	pop	r0
     f50:	0f 90       	pop	r0
     f52:	0f 90       	pop	r0
     f54:	0f 90       	pop	r0
     f56:	0f 90       	pop	r0
     f58:	0f 90       	pop	r0
     f5a:	26 96       	adiw	r28, 0x06	; 6
     f5c:	0f b6       	in	r0, 0x3f	; 63
     f5e:	f8 94       	cli
     f60:	de bf       	out	0x3e, r29	; 62
     f62:	0f be       	out	0x3f, r0	; 63
     f64:	cd bf       	out	0x3d, r28	; 61
     f66:	df 91       	pop	r29
     f68:	cf 91       	pop	r28
     f6a:	1f 91       	pop	r17
     f6c:	0f 91       	pop	r16
     f6e:	08 95       	ret

00000f70 <memcpy>:
     f70:	fb 01       	movw	r30, r22
     f72:	dc 01       	movw	r26, r24
     f74:	02 c0       	rjmp	.+4      	; 0xf7a <memcpy+0xa>
     f76:	01 90       	ld	r0, Z+
     f78:	0d 92       	st	X+, r0
     f7a:	41 50       	subi	r20, 0x01	; 1
     f7c:	50 40       	sbci	r21, 0x00	; 0
     f7e:	d8 f7       	brcc	.-10     	; 0xf76 <memcpy+0x6>
     f80:	08 95       	ret

00000f82 <strncmp>:
     f82:	fb 01       	movw	r30, r22
     f84:	dc 01       	movw	r26, r24
     f86:	41 50       	subi	r20, 0x01	; 1
     f88:	50 40       	sbci	r21, 0x00	; 0
     f8a:	30 f0       	brcs	.+12     	; 0xf98 <strncmp+0x16>
     f8c:	8d 91       	ld	r24, X+
     f8e:	01 90       	ld	r0, Z+
     f90:	80 19       	sub	r24, r0
     f92:	19 f4       	brne	.+6      	; 0xf9a <strncmp+0x18>
     f94:	00 20       	and	r0, r0
     f96:	b9 f7       	brne	.-18     	; 0xf86 <strncmp+0x4>
     f98:	88 1b       	sub	r24, r24
     f9a:	99 0b       	sbc	r25, r25
     f9c:	08 95       	ret

00000f9e <sprintf>:
     f9e:	ae e0       	ldi	r26, 0x0E	; 14
     fa0:	b0 e0       	ldi	r27, 0x00	; 0
     fa2:	e5 ed       	ldi	r30, 0xD5	; 213
     fa4:	f7 e0       	ldi	r31, 0x07	; 7
     fa6:	0c 94 de 0d 	jmp	0x1bbc	; 0x1bbc <__prologue_saves__+0x1c>
     faa:	0d 89       	ldd	r16, Y+21	; 0x15
     fac:	1e 89       	ldd	r17, Y+22	; 0x16
     fae:	86 e0       	ldi	r24, 0x06	; 6
     fb0:	8c 83       	std	Y+4, r24	; 0x04
     fb2:	1a 83       	std	Y+2, r17	; 0x02
     fb4:	09 83       	std	Y+1, r16	; 0x01
     fb6:	8f ef       	ldi	r24, 0xFF	; 255
     fb8:	9f e7       	ldi	r25, 0x7F	; 127
     fba:	9e 83       	std	Y+6, r25	; 0x06
     fbc:	8d 83       	std	Y+5, r24	; 0x05
     fbe:	ae 01       	movw	r20, r28
     fc0:	47 5e       	subi	r20, 0xE7	; 231
     fc2:	5f 4f       	sbci	r21, 0xFF	; 255
     fc4:	6f 89       	ldd	r22, Y+23	; 0x17
     fc6:	78 8d       	ldd	r23, Y+24	; 0x18
     fc8:	ce 01       	movw	r24, r28
     fca:	01 96       	adiw	r24, 0x01	; 1
     fcc:	0e 94 0a 08 	call	0x1014	; 0x1014 <vfprintf>
     fd0:	ef 81       	ldd	r30, Y+7	; 0x07
     fd2:	f8 85       	ldd	r31, Y+8	; 0x08
     fd4:	e0 0f       	add	r30, r16
     fd6:	f1 1f       	adc	r31, r17
     fd8:	10 82       	st	Z, r1
     fda:	2e 96       	adiw	r28, 0x0e	; 14
     fdc:	e4 e0       	ldi	r30, 0x04	; 4
     fde:	0c 94 fa 0d 	jmp	0x1bf4	; 0x1bf4 <__epilogue_restores__+0x1c>

00000fe2 <sscanf>:
     fe2:	ae e0       	ldi	r26, 0x0E	; 14
     fe4:	b0 e0       	ldi	r27, 0x00	; 0
     fe6:	e7 ef       	ldi	r30, 0xF7	; 247
     fe8:	f7 e0       	ldi	r31, 0x07	; 7
     fea:	0c 94 e0 0d 	jmp	0x1bc0	; 0x1bc0 <__prologue_saves__+0x20>
     fee:	85 e0       	ldi	r24, 0x05	; 5
     ff0:	8c 83       	std	Y+4, r24	; 0x04
     ff2:	8b 89       	ldd	r24, Y+19	; 0x13
     ff4:	9c 89       	ldd	r25, Y+20	; 0x14
     ff6:	9a 83       	std	Y+2, r25	; 0x02
     ff8:	89 83       	std	Y+1, r24	; 0x01
     ffa:	ae 01       	movw	r20, r28
     ffc:	49 5e       	subi	r20, 0xE9	; 233
     ffe:	5f 4f       	sbci	r21, 0xFF	; 255
    1000:	6d 89       	ldd	r22, Y+21	; 0x15
    1002:	7e 89       	ldd	r23, Y+22	; 0x16
    1004:	ce 01       	movw	r24, r28
    1006:	01 96       	adiw	r24, 0x01	; 1
    1008:	0e 94 87 0b 	call	0x170e	; 0x170e <vfscanf>
    100c:	2e 96       	adiw	r28, 0x0e	; 14
    100e:	e2 e0       	ldi	r30, 0x02	; 2
    1010:	0c 94 fc 0d 	jmp	0x1bf8	; 0x1bf8 <__epilogue_restores__+0x20>

00001014 <vfprintf>:
    1014:	ab e0       	ldi	r26, 0x0B	; 11
    1016:	b0 e0       	ldi	r27, 0x00	; 0
    1018:	e0 e1       	ldi	r30, 0x10	; 16
    101a:	f8 e0       	ldi	r31, 0x08	; 8
    101c:	0c 94 d0 0d 	jmp	0x1ba0	; 0x1ba0 <__prologue_saves__>
    1020:	6c 01       	movw	r12, r24
    1022:	7b 01       	movw	r14, r22
    1024:	8a 01       	movw	r16, r20
    1026:	fc 01       	movw	r30, r24
    1028:	17 82       	std	Z+7, r1	; 0x07
    102a:	16 82       	std	Z+6, r1	; 0x06
    102c:	83 81       	ldd	r24, Z+3	; 0x03
    102e:	81 ff       	sbrs	r24, 1
    1030:	cc c1       	rjmp	.+920    	; 0x13ca <vfprintf+0x3b6>
    1032:	ce 01       	movw	r24, r28
    1034:	01 96       	adiw	r24, 0x01	; 1
    1036:	3c 01       	movw	r6, r24
    1038:	f6 01       	movw	r30, r12
    103a:	93 81       	ldd	r25, Z+3	; 0x03
    103c:	f7 01       	movw	r30, r14
    103e:	93 fd       	sbrc	r25, 3
    1040:	85 91       	lpm	r24, Z+
    1042:	93 ff       	sbrs	r25, 3
    1044:	81 91       	ld	r24, Z+
    1046:	7f 01       	movw	r14, r30
    1048:	88 23       	and	r24, r24
    104a:	09 f4       	brne	.+2      	; 0x104e <vfprintf+0x3a>
    104c:	ba c1       	rjmp	.+884    	; 0x13c2 <vfprintf+0x3ae>
    104e:	85 32       	cpi	r24, 0x25	; 37
    1050:	39 f4       	brne	.+14     	; 0x1060 <vfprintf+0x4c>
    1052:	93 fd       	sbrc	r25, 3
    1054:	85 91       	lpm	r24, Z+
    1056:	93 ff       	sbrs	r25, 3
    1058:	81 91       	ld	r24, Z+
    105a:	7f 01       	movw	r14, r30
    105c:	85 32       	cpi	r24, 0x25	; 37
    105e:	29 f4       	brne	.+10     	; 0x106a <vfprintf+0x56>
    1060:	b6 01       	movw	r22, r12
    1062:	90 e0       	ldi	r25, 0x00	; 0
    1064:	0e 94 00 0d 	call	0x1a00	; 0x1a00 <fputc>
    1068:	e7 cf       	rjmp	.-50     	; 0x1038 <vfprintf+0x24>
    106a:	91 2c       	mov	r9, r1
    106c:	21 2c       	mov	r2, r1
    106e:	31 2c       	mov	r3, r1
    1070:	ff e1       	ldi	r31, 0x1F	; 31
    1072:	f3 15       	cp	r31, r3
    1074:	d8 f0       	brcs	.+54     	; 0x10ac <vfprintf+0x98>
    1076:	8b 32       	cpi	r24, 0x2B	; 43
    1078:	79 f0       	breq	.+30     	; 0x1098 <vfprintf+0x84>
    107a:	38 f4       	brcc	.+14     	; 0x108a <vfprintf+0x76>
    107c:	80 32       	cpi	r24, 0x20	; 32
    107e:	79 f0       	breq	.+30     	; 0x109e <vfprintf+0x8a>
    1080:	83 32       	cpi	r24, 0x23	; 35
    1082:	a1 f4       	brne	.+40     	; 0x10ac <vfprintf+0x98>
    1084:	23 2d       	mov	r18, r3
    1086:	20 61       	ori	r18, 0x10	; 16
    1088:	1d c0       	rjmp	.+58     	; 0x10c4 <vfprintf+0xb0>
    108a:	8d 32       	cpi	r24, 0x2D	; 45
    108c:	61 f0       	breq	.+24     	; 0x10a6 <vfprintf+0x92>
    108e:	80 33       	cpi	r24, 0x30	; 48
    1090:	69 f4       	brne	.+26     	; 0x10ac <vfprintf+0x98>
    1092:	23 2d       	mov	r18, r3
    1094:	21 60       	ori	r18, 0x01	; 1
    1096:	16 c0       	rjmp	.+44     	; 0x10c4 <vfprintf+0xb0>
    1098:	83 2d       	mov	r24, r3
    109a:	82 60       	ori	r24, 0x02	; 2
    109c:	38 2e       	mov	r3, r24
    109e:	e3 2d       	mov	r30, r3
    10a0:	e4 60       	ori	r30, 0x04	; 4
    10a2:	3e 2e       	mov	r3, r30
    10a4:	2a c0       	rjmp	.+84     	; 0x10fa <vfprintf+0xe6>
    10a6:	f3 2d       	mov	r31, r3
    10a8:	f8 60       	ori	r31, 0x08	; 8
    10aa:	1d c0       	rjmp	.+58     	; 0x10e6 <vfprintf+0xd2>
    10ac:	37 fc       	sbrc	r3, 7
    10ae:	2d c0       	rjmp	.+90     	; 0x110a <vfprintf+0xf6>
    10b0:	20 ed       	ldi	r18, 0xD0	; 208
    10b2:	28 0f       	add	r18, r24
    10b4:	2a 30       	cpi	r18, 0x0A	; 10
    10b6:	40 f0       	brcs	.+16     	; 0x10c8 <vfprintf+0xb4>
    10b8:	8e 32       	cpi	r24, 0x2E	; 46
    10ba:	b9 f4       	brne	.+46     	; 0x10ea <vfprintf+0xd6>
    10bc:	36 fc       	sbrc	r3, 6
    10be:	81 c1       	rjmp	.+770    	; 0x13c2 <vfprintf+0x3ae>
    10c0:	23 2d       	mov	r18, r3
    10c2:	20 64       	ori	r18, 0x40	; 64
    10c4:	32 2e       	mov	r3, r18
    10c6:	19 c0       	rjmp	.+50     	; 0x10fa <vfprintf+0xe6>
    10c8:	36 fe       	sbrs	r3, 6
    10ca:	06 c0       	rjmp	.+12     	; 0x10d8 <vfprintf+0xc4>
    10cc:	8a e0       	ldi	r24, 0x0A	; 10
    10ce:	98 9e       	mul	r9, r24
    10d0:	20 0d       	add	r18, r0
    10d2:	11 24       	eor	r1, r1
    10d4:	92 2e       	mov	r9, r18
    10d6:	11 c0       	rjmp	.+34     	; 0x10fa <vfprintf+0xe6>
    10d8:	ea e0       	ldi	r30, 0x0A	; 10
    10da:	2e 9e       	mul	r2, r30
    10dc:	20 0d       	add	r18, r0
    10de:	11 24       	eor	r1, r1
    10e0:	22 2e       	mov	r2, r18
    10e2:	f3 2d       	mov	r31, r3
    10e4:	f0 62       	ori	r31, 0x20	; 32
    10e6:	3f 2e       	mov	r3, r31
    10e8:	08 c0       	rjmp	.+16     	; 0x10fa <vfprintf+0xe6>
    10ea:	8c 36       	cpi	r24, 0x6C	; 108
    10ec:	21 f4       	brne	.+8      	; 0x10f6 <vfprintf+0xe2>
    10ee:	83 2d       	mov	r24, r3
    10f0:	80 68       	ori	r24, 0x80	; 128
    10f2:	38 2e       	mov	r3, r24
    10f4:	02 c0       	rjmp	.+4      	; 0x10fa <vfprintf+0xe6>
    10f6:	88 36       	cpi	r24, 0x68	; 104
    10f8:	41 f4       	brne	.+16     	; 0x110a <vfprintf+0xf6>
    10fa:	f7 01       	movw	r30, r14
    10fc:	93 fd       	sbrc	r25, 3
    10fe:	85 91       	lpm	r24, Z+
    1100:	93 ff       	sbrs	r25, 3
    1102:	81 91       	ld	r24, Z+
    1104:	7f 01       	movw	r14, r30
    1106:	81 11       	cpse	r24, r1
    1108:	b3 cf       	rjmp	.-154    	; 0x1070 <vfprintf+0x5c>
    110a:	98 2f       	mov	r25, r24
    110c:	9f 7d       	andi	r25, 0xDF	; 223
    110e:	95 54       	subi	r25, 0x45	; 69
    1110:	93 30       	cpi	r25, 0x03	; 3
    1112:	28 f4       	brcc	.+10     	; 0x111e <vfprintf+0x10a>
    1114:	0c 5f       	subi	r16, 0xFC	; 252
    1116:	1f 4f       	sbci	r17, 0xFF	; 255
    1118:	9f e3       	ldi	r25, 0x3F	; 63
    111a:	99 83       	std	Y+1, r25	; 0x01
    111c:	0d c0       	rjmp	.+26     	; 0x1138 <vfprintf+0x124>
    111e:	83 36       	cpi	r24, 0x63	; 99
    1120:	31 f0       	breq	.+12     	; 0x112e <vfprintf+0x11a>
    1122:	83 37       	cpi	r24, 0x73	; 115
    1124:	71 f0       	breq	.+28     	; 0x1142 <vfprintf+0x12e>
    1126:	83 35       	cpi	r24, 0x53	; 83
    1128:	09 f0       	breq	.+2      	; 0x112c <vfprintf+0x118>
    112a:	59 c0       	rjmp	.+178    	; 0x11de <vfprintf+0x1ca>
    112c:	21 c0       	rjmp	.+66     	; 0x1170 <vfprintf+0x15c>
    112e:	f8 01       	movw	r30, r16
    1130:	80 81       	ld	r24, Z
    1132:	89 83       	std	Y+1, r24	; 0x01
    1134:	0e 5f       	subi	r16, 0xFE	; 254
    1136:	1f 4f       	sbci	r17, 0xFF	; 255
    1138:	88 24       	eor	r8, r8
    113a:	83 94       	inc	r8
    113c:	91 2c       	mov	r9, r1
    113e:	53 01       	movw	r10, r6
    1140:	13 c0       	rjmp	.+38     	; 0x1168 <vfprintf+0x154>
    1142:	28 01       	movw	r4, r16
    1144:	f2 e0       	ldi	r31, 0x02	; 2
    1146:	4f 0e       	add	r4, r31
    1148:	51 1c       	adc	r5, r1
    114a:	f8 01       	movw	r30, r16
    114c:	a0 80       	ld	r10, Z
    114e:	b1 80       	ldd	r11, Z+1	; 0x01
    1150:	36 fe       	sbrs	r3, 6
    1152:	03 c0       	rjmp	.+6      	; 0x115a <vfprintf+0x146>
    1154:	69 2d       	mov	r22, r9
    1156:	70 e0       	ldi	r23, 0x00	; 0
    1158:	02 c0       	rjmp	.+4      	; 0x115e <vfprintf+0x14a>
    115a:	6f ef       	ldi	r22, 0xFF	; 255
    115c:	7f ef       	ldi	r23, 0xFF	; 255
    115e:	c5 01       	movw	r24, r10
    1160:	0e 94 b7 0c 	call	0x196e	; 0x196e <strnlen>
    1164:	4c 01       	movw	r8, r24
    1166:	82 01       	movw	r16, r4
    1168:	f3 2d       	mov	r31, r3
    116a:	ff 77       	andi	r31, 0x7F	; 127
    116c:	3f 2e       	mov	r3, r31
    116e:	16 c0       	rjmp	.+44     	; 0x119c <vfprintf+0x188>
    1170:	28 01       	movw	r4, r16
    1172:	22 e0       	ldi	r18, 0x02	; 2
    1174:	42 0e       	add	r4, r18
    1176:	51 1c       	adc	r5, r1
    1178:	f8 01       	movw	r30, r16
    117a:	a0 80       	ld	r10, Z
    117c:	b1 80       	ldd	r11, Z+1	; 0x01
    117e:	36 fe       	sbrs	r3, 6
    1180:	03 c0       	rjmp	.+6      	; 0x1188 <vfprintf+0x174>
    1182:	69 2d       	mov	r22, r9
    1184:	70 e0       	ldi	r23, 0x00	; 0
    1186:	02 c0       	rjmp	.+4      	; 0x118c <vfprintf+0x178>
    1188:	6f ef       	ldi	r22, 0xFF	; 255
    118a:	7f ef       	ldi	r23, 0xFF	; 255
    118c:	c5 01       	movw	r24, r10
    118e:	0e 94 ac 0c 	call	0x1958	; 0x1958 <strnlen_P>
    1192:	4c 01       	movw	r8, r24
    1194:	f3 2d       	mov	r31, r3
    1196:	f0 68       	ori	r31, 0x80	; 128
    1198:	3f 2e       	mov	r3, r31
    119a:	82 01       	movw	r16, r4
    119c:	33 fc       	sbrc	r3, 3
    119e:	1b c0       	rjmp	.+54     	; 0x11d6 <vfprintf+0x1c2>
    11a0:	82 2d       	mov	r24, r2
    11a2:	90 e0       	ldi	r25, 0x00	; 0
    11a4:	88 16       	cp	r8, r24
    11a6:	99 06       	cpc	r9, r25
    11a8:	b0 f4       	brcc	.+44     	; 0x11d6 <vfprintf+0x1c2>
    11aa:	b6 01       	movw	r22, r12
    11ac:	80 e2       	ldi	r24, 0x20	; 32
    11ae:	90 e0       	ldi	r25, 0x00	; 0
    11b0:	0e 94 00 0d 	call	0x1a00	; 0x1a00 <fputc>
    11b4:	2a 94       	dec	r2
    11b6:	f4 cf       	rjmp	.-24     	; 0x11a0 <vfprintf+0x18c>
    11b8:	f5 01       	movw	r30, r10
    11ba:	37 fc       	sbrc	r3, 7
    11bc:	85 91       	lpm	r24, Z+
    11be:	37 fe       	sbrs	r3, 7
    11c0:	81 91       	ld	r24, Z+
    11c2:	5f 01       	movw	r10, r30
    11c4:	b6 01       	movw	r22, r12
    11c6:	90 e0       	ldi	r25, 0x00	; 0
    11c8:	0e 94 00 0d 	call	0x1a00	; 0x1a00 <fputc>
    11cc:	21 10       	cpse	r2, r1
    11ce:	2a 94       	dec	r2
    11d0:	21 e0       	ldi	r18, 0x01	; 1
    11d2:	82 1a       	sub	r8, r18
    11d4:	91 08       	sbc	r9, r1
    11d6:	81 14       	cp	r8, r1
    11d8:	91 04       	cpc	r9, r1
    11da:	71 f7       	brne	.-36     	; 0x11b8 <vfprintf+0x1a4>
    11dc:	e8 c0       	rjmp	.+464    	; 0x13ae <vfprintf+0x39a>
    11de:	84 36       	cpi	r24, 0x64	; 100
    11e0:	11 f0       	breq	.+4      	; 0x11e6 <vfprintf+0x1d2>
    11e2:	89 36       	cpi	r24, 0x69	; 105
    11e4:	41 f5       	brne	.+80     	; 0x1236 <vfprintf+0x222>
    11e6:	f8 01       	movw	r30, r16
    11e8:	37 fe       	sbrs	r3, 7
    11ea:	07 c0       	rjmp	.+14     	; 0x11fa <vfprintf+0x1e6>
    11ec:	60 81       	ld	r22, Z
    11ee:	71 81       	ldd	r23, Z+1	; 0x01
    11f0:	82 81       	ldd	r24, Z+2	; 0x02
    11f2:	93 81       	ldd	r25, Z+3	; 0x03
    11f4:	0c 5f       	subi	r16, 0xFC	; 252
    11f6:	1f 4f       	sbci	r17, 0xFF	; 255
    11f8:	08 c0       	rjmp	.+16     	; 0x120a <vfprintf+0x1f6>
    11fa:	60 81       	ld	r22, Z
    11fc:	71 81       	ldd	r23, Z+1	; 0x01
    11fe:	07 2e       	mov	r0, r23
    1200:	00 0c       	add	r0, r0
    1202:	88 0b       	sbc	r24, r24
    1204:	99 0b       	sbc	r25, r25
    1206:	0e 5f       	subi	r16, 0xFE	; 254
    1208:	1f 4f       	sbci	r17, 0xFF	; 255
    120a:	f3 2d       	mov	r31, r3
    120c:	ff 76       	andi	r31, 0x6F	; 111
    120e:	3f 2e       	mov	r3, r31
    1210:	97 ff       	sbrs	r25, 7
    1212:	09 c0       	rjmp	.+18     	; 0x1226 <vfprintf+0x212>
    1214:	90 95       	com	r25
    1216:	80 95       	com	r24
    1218:	70 95       	com	r23
    121a:	61 95       	neg	r22
    121c:	7f 4f       	sbci	r23, 0xFF	; 255
    121e:	8f 4f       	sbci	r24, 0xFF	; 255
    1220:	9f 4f       	sbci	r25, 0xFF	; 255
    1222:	f0 68       	ori	r31, 0x80	; 128
    1224:	3f 2e       	mov	r3, r31
    1226:	2a e0       	ldi	r18, 0x0A	; 10
    1228:	30 e0       	ldi	r19, 0x00	; 0
    122a:	a3 01       	movw	r20, r6
    122c:	0e 94 55 0d 	call	0x1aaa	; 0x1aaa <__ultoa_invert>
    1230:	88 2e       	mov	r8, r24
    1232:	86 18       	sub	r8, r6
    1234:	45 c0       	rjmp	.+138    	; 0x12c0 <vfprintf+0x2ac>
    1236:	85 37       	cpi	r24, 0x75	; 117
    1238:	31 f4       	brne	.+12     	; 0x1246 <vfprintf+0x232>
    123a:	23 2d       	mov	r18, r3
    123c:	2f 7e       	andi	r18, 0xEF	; 239
    123e:	b2 2e       	mov	r11, r18
    1240:	2a e0       	ldi	r18, 0x0A	; 10
    1242:	30 e0       	ldi	r19, 0x00	; 0
    1244:	25 c0       	rjmp	.+74     	; 0x1290 <vfprintf+0x27c>
    1246:	93 2d       	mov	r25, r3
    1248:	99 7f       	andi	r25, 0xF9	; 249
    124a:	b9 2e       	mov	r11, r25
    124c:	8f 36       	cpi	r24, 0x6F	; 111
    124e:	c1 f0       	breq	.+48     	; 0x1280 <vfprintf+0x26c>
    1250:	18 f4       	brcc	.+6      	; 0x1258 <vfprintf+0x244>
    1252:	88 35       	cpi	r24, 0x58	; 88
    1254:	79 f0       	breq	.+30     	; 0x1274 <vfprintf+0x260>
    1256:	b5 c0       	rjmp	.+362    	; 0x13c2 <vfprintf+0x3ae>
    1258:	80 37       	cpi	r24, 0x70	; 112
    125a:	19 f0       	breq	.+6      	; 0x1262 <vfprintf+0x24e>
    125c:	88 37       	cpi	r24, 0x78	; 120
    125e:	21 f0       	breq	.+8      	; 0x1268 <vfprintf+0x254>
    1260:	b0 c0       	rjmp	.+352    	; 0x13c2 <vfprintf+0x3ae>
    1262:	e9 2f       	mov	r30, r25
    1264:	e0 61       	ori	r30, 0x10	; 16
    1266:	be 2e       	mov	r11, r30
    1268:	b4 fe       	sbrs	r11, 4
    126a:	0d c0       	rjmp	.+26     	; 0x1286 <vfprintf+0x272>
    126c:	fb 2d       	mov	r31, r11
    126e:	f4 60       	ori	r31, 0x04	; 4
    1270:	bf 2e       	mov	r11, r31
    1272:	09 c0       	rjmp	.+18     	; 0x1286 <vfprintf+0x272>
    1274:	34 fe       	sbrs	r3, 4
    1276:	0a c0       	rjmp	.+20     	; 0x128c <vfprintf+0x278>
    1278:	29 2f       	mov	r18, r25
    127a:	26 60       	ori	r18, 0x06	; 6
    127c:	b2 2e       	mov	r11, r18
    127e:	06 c0       	rjmp	.+12     	; 0x128c <vfprintf+0x278>
    1280:	28 e0       	ldi	r18, 0x08	; 8
    1282:	30 e0       	ldi	r19, 0x00	; 0
    1284:	05 c0       	rjmp	.+10     	; 0x1290 <vfprintf+0x27c>
    1286:	20 e1       	ldi	r18, 0x10	; 16
    1288:	30 e0       	ldi	r19, 0x00	; 0
    128a:	02 c0       	rjmp	.+4      	; 0x1290 <vfprintf+0x27c>
    128c:	20 e1       	ldi	r18, 0x10	; 16
    128e:	32 e0       	ldi	r19, 0x02	; 2
    1290:	f8 01       	movw	r30, r16
    1292:	b7 fe       	sbrs	r11, 7
    1294:	07 c0       	rjmp	.+14     	; 0x12a4 <vfprintf+0x290>
    1296:	60 81       	ld	r22, Z
    1298:	71 81       	ldd	r23, Z+1	; 0x01
    129a:	82 81       	ldd	r24, Z+2	; 0x02
    129c:	93 81       	ldd	r25, Z+3	; 0x03
    129e:	0c 5f       	subi	r16, 0xFC	; 252
    12a0:	1f 4f       	sbci	r17, 0xFF	; 255
    12a2:	06 c0       	rjmp	.+12     	; 0x12b0 <vfprintf+0x29c>
    12a4:	60 81       	ld	r22, Z
    12a6:	71 81       	ldd	r23, Z+1	; 0x01
    12a8:	80 e0       	ldi	r24, 0x00	; 0
    12aa:	90 e0       	ldi	r25, 0x00	; 0
    12ac:	0e 5f       	subi	r16, 0xFE	; 254
    12ae:	1f 4f       	sbci	r17, 0xFF	; 255
    12b0:	a3 01       	movw	r20, r6
    12b2:	0e 94 55 0d 	call	0x1aaa	; 0x1aaa <__ultoa_invert>
    12b6:	88 2e       	mov	r8, r24
    12b8:	86 18       	sub	r8, r6
    12ba:	fb 2d       	mov	r31, r11
    12bc:	ff 77       	andi	r31, 0x7F	; 127
    12be:	3f 2e       	mov	r3, r31
    12c0:	36 fe       	sbrs	r3, 6
    12c2:	0d c0       	rjmp	.+26     	; 0x12de <vfprintf+0x2ca>
    12c4:	23 2d       	mov	r18, r3
    12c6:	2e 7f       	andi	r18, 0xFE	; 254
    12c8:	a2 2e       	mov	r10, r18
    12ca:	89 14       	cp	r8, r9
    12cc:	58 f4       	brcc	.+22     	; 0x12e4 <vfprintf+0x2d0>
    12ce:	34 fe       	sbrs	r3, 4
    12d0:	0b c0       	rjmp	.+22     	; 0x12e8 <vfprintf+0x2d4>
    12d2:	32 fc       	sbrc	r3, 2
    12d4:	09 c0       	rjmp	.+18     	; 0x12e8 <vfprintf+0x2d4>
    12d6:	83 2d       	mov	r24, r3
    12d8:	8e 7e       	andi	r24, 0xEE	; 238
    12da:	a8 2e       	mov	r10, r24
    12dc:	05 c0       	rjmp	.+10     	; 0x12e8 <vfprintf+0x2d4>
    12de:	b8 2c       	mov	r11, r8
    12e0:	a3 2c       	mov	r10, r3
    12e2:	03 c0       	rjmp	.+6      	; 0x12ea <vfprintf+0x2d6>
    12e4:	b8 2c       	mov	r11, r8
    12e6:	01 c0       	rjmp	.+2      	; 0x12ea <vfprintf+0x2d6>
    12e8:	b9 2c       	mov	r11, r9
    12ea:	a4 fe       	sbrs	r10, 4
    12ec:	0f c0       	rjmp	.+30     	; 0x130c <vfprintf+0x2f8>
    12ee:	fe 01       	movw	r30, r28
    12f0:	e8 0d       	add	r30, r8
    12f2:	f1 1d       	adc	r31, r1
    12f4:	80 81       	ld	r24, Z
    12f6:	80 33       	cpi	r24, 0x30	; 48
    12f8:	21 f4       	brne	.+8      	; 0x1302 <vfprintf+0x2ee>
    12fa:	9a 2d       	mov	r25, r10
    12fc:	99 7e       	andi	r25, 0xE9	; 233
    12fe:	a9 2e       	mov	r10, r25
    1300:	09 c0       	rjmp	.+18     	; 0x1314 <vfprintf+0x300>
    1302:	a2 fe       	sbrs	r10, 2
    1304:	06 c0       	rjmp	.+12     	; 0x1312 <vfprintf+0x2fe>
    1306:	b3 94       	inc	r11
    1308:	b3 94       	inc	r11
    130a:	04 c0       	rjmp	.+8      	; 0x1314 <vfprintf+0x300>
    130c:	8a 2d       	mov	r24, r10
    130e:	86 78       	andi	r24, 0x86	; 134
    1310:	09 f0       	breq	.+2      	; 0x1314 <vfprintf+0x300>
    1312:	b3 94       	inc	r11
    1314:	a3 fc       	sbrc	r10, 3
    1316:	11 c0       	rjmp	.+34     	; 0x133a <vfprintf+0x326>
    1318:	a0 fe       	sbrs	r10, 0
    131a:	06 c0       	rjmp	.+12     	; 0x1328 <vfprintf+0x314>
    131c:	b2 14       	cp	r11, r2
    131e:	88 f4       	brcc	.+34     	; 0x1342 <vfprintf+0x32e>
    1320:	28 0c       	add	r2, r8
    1322:	92 2c       	mov	r9, r2
    1324:	9b 18       	sub	r9, r11
    1326:	0e c0       	rjmp	.+28     	; 0x1344 <vfprintf+0x330>
    1328:	b2 14       	cp	r11, r2
    132a:	60 f4       	brcc	.+24     	; 0x1344 <vfprintf+0x330>
    132c:	b6 01       	movw	r22, r12
    132e:	80 e2       	ldi	r24, 0x20	; 32
    1330:	90 e0       	ldi	r25, 0x00	; 0
    1332:	0e 94 00 0d 	call	0x1a00	; 0x1a00 <fputc>
    1336:	b3 94       	inc	r11
    1338:	f7 cf       	rjmp	.-18     	; 0x1328 <vfprintf+0x314>
    133a:	b2 14       	cp	r11, r2
    133c:	18 f4       	brcc	.+6      	; 0x1344 <vfprintf+0x330>
    133e:	2b 18       	sub	r2, r11
    1340:	02 c0       	rjmp	.+4      	; 0x1346 <vfprintf+0x332>
    1342:	98 2c       	mov	r9, r8
    1344:	21 2c       	mov	r2, r1
    1346:	a4 fe       	sbrs	r10, 4
    1348:	10 c0       	rjmp	.+32     	; 0x136a <vfprintf+0x356>
    134a:	b6 01       	movw	r22, r12
    134c:	80 e3       	ldi	r24, 0x30	; 48
    134e:	90 e0       	ldi	r25, 0x00	; 0
    1350:	0e 94 00 0d 	call	0x1a00	; 0x1a00 <fputc>
    1354:	a2 fe       	sbrs	r10, 2
    1356:	17 c0       	rjmp	.+46     	; 0x1386 <vfprintf+0x372>
    1358:	a1 fc       	sbrc	r10, 1
    135a:	03 c0       	rjmp	.+6      	; 0x1362 <vfprintf+0x34e>
    135c:	88 e7       	ldi	r24, 0x78	; 120
    135e:	90 e0       	ldi	r25, 0x00	; 0
    1360:	02 c0       	rjmp	.+4      	; 0x1366 <vfprintf+0x352>
    1362:	88 e5       	ldi	r24, 0x58	; 88
    1364:	90 e0       	ldi	r25, 0x00	; 0
    1366:	b6 01       	movw	r22, r12
    1368:	0c c0       	rjmp	.+24     	; 0x1382 <vfprintf+0x36e>
    136a:	8a 2d       	mov	r24, r10
    136c:	86 78       	andi	r24, 0x86	; 134
    136e:	59 f0       	breq	.+22     	; 0x1386 <vfprintf+0x372>
    1370:	a1 fe       	sbrs	r10, 1
    1372:	02 c0       	rjmp	.+4      	; 0x1378 <vfprintf+0x364>
    1374:	8b e2       	ldi	r24, 0x2B	; 43
    1376:	01 c0       	rjmp	.+2      	; 0x137a <vfprintf+0x366>
    1378:	80 e2       	ldi	r24, 0x20	; 32
    137a:	a7 fc       	sbrc	r10, 7
    137c:	8d e2       	ldi	r24, 0x2D	; 45
    137e:	b6 01       	movw	r22, r12
    1380:	90 e0       	ldi	r25, 0x00	; 0
    1382:	0e 94 00 0d 	call	0x1a00	; 0x1a00 <fputc>
    1386:	89 14       	cp	r8, r9
    1388:	38 f4       	brcc	.+14     	; 0x1398 <vfprintf+0x384>
    138a:	b6 01       	movw	r22, r12
    138c:	80 e3       	ldi	r24, 0x30	; 48
    138e:	90 e0       	ldi	r25, 0x00	; 0
    1390:	0e 94 00 0d 	call	0x1a00	; 0x1a00 <fputc>
    1394:	9a 94       	dec	r9
    1396:	f7 cf       	rjmp	.-18     	; 0x1386 <vfprintf+0x372>
    1398:	8a 94       	dec	r8
    139a:	f3 01       	movw	r30, r6
    139c:	e8 0d       	add	r30, r8
    139e:	f1 1d       	adc	r31, r1
    13a0:	80 81       	ld	r24, Z
    13a2:	b6 01       	movw	r22, r12
    13a4:	90 e0       	ldi	r25, 0x00	; 0
    13a6:	0e 94 00 0d 	call	0x1a00	; 0x1a00 <fputc>
    13aa:	81 10       	cpse	r8, r1
    13ac:	f5 cf       	rjmp	.-22     	; 0x1398 <vfprintf+0x384>
    13ae:	22 20       	and	r2, r2
    13b0:	09 f4       	brne	.+2      	; 0x13b4 <vfprintf+0x3a0>
    13b2:	42 ce       	rjmp	.-892    	; 0x1038 <vfprintf+0x24>
    13b4:	b6 01       	movw	r22, r12
    13b6:	80 e2       	ldi	r24, 0x20	; 32
    13b8:	90 e0       	ldi	r25, 0x00	; 0
    13ba:	0e 94 00 0d 	call	0x1a00	; 0x1a00 <fputc>
    13be:	2a 94       	dec	r2
    13c0:	f6 cf       	rjmp	.-20     	; 0x13ae <vfprintf+0x39a>
    13c2:	f6 01       	movw	r30, r12
    13c4:	86 81       	ldd	r24, Z+6	; 0x06
    13c6:	97 81       	ldd	r25, Z+7	; 0x07
    13c8:	02 c0       	rjmp	.+4      	; 0x13ce <vfprintf+0x3ba>
    13ca:	8f ef       	ldi	r24, 0xFF	; 255
    13cc:	9f ef       	ldi	r25, 0xFF	; 255
    13ce:	2b 96       	adiw	r28, 0x0b	; 11
    13d0:	e2 e1       	ldi	r30, 0x12	; 18
    13d2:	0c 94 ec 0d 	jmp	0x1bd8	; 0x1bd8 <__epilogue_restores__>

000013d6 <putval>:
    13d6:	20 fd       	sbrc	r18, 0
    13d8:	09 c0       	rjmp	.+18     	; 0x13ec <putval+0x16>
    13da:	fc 01       	movw	r30, r24
    13dc:	23 fd       	sbrc	r18, 3
    13de:	05 c0       	rjmp	.+10     	; 0x13ea <putval+0x14>
    13e0:	22 ff       	sbrs	r18, 2
    13e2:	02 c0       	rjmp	.+4      	; 0x13e8 <putval+0x12>
    13e4:	73 83       	std	Z+3, r23	; 0x03
    13e6:	62 83       	std	Z+2, r22	; 0x02
    13e8:	51 83       	std	Z+1, r21	; 0x01
    13ea:	40 83       	st	Z, r20
    13ec:	08 95       	ret

000013ee <mulacc>:
    13ee:	44 fd       	sbrc	r20, 4
    13f0:	17 c0       	rjmp	.+46     	; 0x1420 <mulacc+0x32>
    13f2:	46 fd       	sbrc	r20, 6
    13f4:	17 c0       	rjmp	.+46     	; 0x1424 <mulacc+0x36>
    13f6:	ab 01       	movw	r20, r22
    13f8:	bc 01       	movw	r22, r24
    13fa:	da 01       	movw	r26, r20
    13fc:	fb 01       	movw	r30, r22
    13fe:	aa 0f       	add	r26, r26
    1400:	bb 1f       	adc	r27, r27
    1402:	ee 1f       	adc	r30, r30
    1404:	ff 1f       	adc	r31, r31
    1406:	10 94       	com	r1
    1408:	d1 f7       	brne	.-12     	; 0x13fe <mulacc+0x10>
    140a:	4a 0f       	add	r20, r26
    140c:	5b 1f       	adc	r21, r27
    140e:	6e 1f       	adc	r22, r30
    1410:	7f 1f       	adc	r23, r31
    1412:	cb 01       	movw	r24, r22
    1414:	ba 01       	movw	r22, r20
    1416:	66 0f       	add	r22, r22
    1418:	77 1f       	adc	r23, r23
    141a:	88 1f       	adc	r24, r24
    141c:	99 1f       	adc	r25, r25
    141e:	09 c0       	rjmp	.+18     	; 0x1432 <mulacc+0x44>
    1420:	33 e0       	ldi	r19, 0x03	; 3
    1422:	01 c0       	rjmp	.+2      	; 0x1426 <mulacc+0x38>
    1424:	34 e0       	ldi	r19, 0x04	; 4
    1426:	66 0f       	add	r22, r22
    1428:	77 1f       	adc	r23, r23
    142a:	88 1f       	adc	r24, r24
    142c:	99 1f       	adc	r25, r25
    142e:	31 50       	subi	r19, 0x01	; 1
    1430:	d1 f7       	brne	.-12     	; 0x1426 <mulacc+0x38>
    1432:	62 0f       	add	r22, r18
    1434:	71 1d       	adc	r23, r1
    1436:	81 1d       	adc	r24, r1
    1438:	91 1d       	adc	r25, r1
    143a:	08 95       	ret

0000143c <skip_spaces>:
    143c:	0f 93       	push	r16
    143e:	1f 93       	push	r17
    1440:	cf 93       	push	r28
    1442:	df 93       	push	r29
    1444:	8c 01       	movw	r16, r24
    1446:	c8 01       	movw	r24, r16
    1448:	0e 94 c2 0c 	call	0x1984	; 0x1984 <fgetc>
    144c:	ec 01       	movw	r28, r24
    144e:	97 fd       	sbrc	r25, 7
    1450:	08 c0       	rjmp	.+16     	; 0x1462 <skip_spaces+0x26>
    1452:	0e 94 98 0c 	call	0x1930	; 0x1930 <isspace>
    1456:	89 2b       	or	r24, r25
    1458:	b1 f7       	brne	.-20     	; 0x1446 <skip_spaces+0xa>
    145a:	b8 01       	movw	r22, r16
    145c:	ce 01       	movw	r24, r28
    145e:	0e 94 3c 0d 	call	0x1a78	; 0x1a78 <ungetc>
    1462:	ce 01       	movw	r24, r28
    1464:	df 91       	pop	r29
    1466:	cf 91       	pop	r28
    1468:	1f 91       	pop	r17
    146a:	0f 91       	pop	r16
    146c:	08 95       	ret

0000146e <conv_int>:
    146e:	8f 92       	push	r8
    1470:	9f 92       	push	r9
    1472:	af 92       	push	r10
    1474:	bf 92       	push	r11
    1476:	ef 92       	push	r14
    1478:	ff 92       	push	r15
    147a:	0f 93       	push	r16
    147c:	1f 93       	push	r17
    147e:	cf 93       	push	r28
    1480:	df 93       	push	r29
    1482:	8c 01       	movw	r16, r24
    1484:	d6 2f       	mov	r29, r22
    1486:	7a 01       	movw	r14, r20
    1488:	b2 2e       	mov	r11, r18
    148a:	0e 94 c2 0c 	call	0x1984	; 0x1984 <fgetc>
    148e:	9c 01       	movw	r18, r24
    1490:	33 27       	eor	r19, r19
    1492:	2b 32       	cpi	r18, 0x2B	; 43
    1494:	31 05       	cpc	r19, r1
    1496:	31 f0       	breq	.+12     	; 0x14a4 <conv_int+0x36>
    1498:	2d 32       	cpi	r18, 0x2D	; 45
    149a:	31 05       	cpc	r19, r1
    149c:	61 f4       	brne	.+24     	; 0x14b6 <conv_int+0x48>
    149e:	8b 2d       	mov	r24, r11
    14a0:	80 68       	ori	r24, 0x80	; 128
    14a2:	b8 2e       	mov	r11, r24
    14a4:	d1 50       	subi	r29, 0x01	; 1
    14a6:	11 f4       	brne	.+4      	; 0x14ac <conv_int+0x3e>
    14a8:	80 e0       	ldi	r24, 0x00	; 0
    14aa:	68 c0       	rjmp	.+208    	; 0x157c <conv_int+0x10e>
    14ac:	c8 01       	movw	r24, r16
    14ae:	0e 94 c2 0c 	call	0x1984	; 0x1984 <fgetc>
    14b2:	97 fd       	sbrc	r25, 7
    14b4:	f9 cf       	rjmp	.-14     	; 0x14a8 <conv_int+0x3a>
    14b6:	cb 2d       	mov	r28, r11
    14b8:	cd 7f       	andi	r28, 0xFD	; 253
    14ba:	2b 2d       	mov	r18, r11
    14bc:	20 73       	andi	r18, 0x30	; 48
    14be:	09 f5       	brne	.+66     	; 0x1502 <conv_int+0x94>
    14c0:	80 33       	cpi	r24, 0x30	; 48
    14c2:	f9 f4       	brne	.+62     	; 0x1502 <conv_int+0x94>
    14c4:	aa 24       	eor	r10, r10
    14c6:	aa 94       	dec	r10
    14c8:	ad 0e       	add	r10, r29
    14ca:	09 f4       	brne	.+2      	; 0x14ce <conv_int+0x60>
    14cc:	43 c0       	rjmp	.+134    	; 0x1554 <conv_int+0xe6>
    14ce:	c8 01       	movw	r24, r16
    14d0:	0e 94 c2 0c 	call	0x1984	; 0x1984 <fgetc>
    14d4:	97 fd       	sbrc	r25, 7
    14d6:	3e c0       	rjmp	.+124    	; 0x1554 <conv_int+0xe6>
    14d8:	9c 01       	movw	r18, r24
    14da:	2f 7d       	andi	r18, 0xDF	; 223
    14dc:	33 27       	eor	r19, r19
    14de:	28 35       	cpi	r18, 0x58	; 88
    14e0:	31 05       	cpc	r19, r1
    14e2:	49 f4       	brne	.+18     	; 0x14f6 <conv_int+0x88>
    14e4:	c2 64       	ori	r28, 0x42	; 66
    14e6:	d2 50       	subi	r29, 0x02	; 2
    14e8:	a9 f1       	breq	.+106    	; 0x1554 <conv_int+0xe6>
    14ea:	c8 01       	movw	r24, r16
    14ec:	0e 94 c2 0c 	call	0x1984	; 0x1984 <fgetc>
    14f0:	97 ff       	sbrs	r25, 7
    14f2:	07 c0       	rjmp	.+14     	; 0x1502 <conv_int+0x94>
    14f4:	2f c0       	rjmp	.+94     	; 0x1554 <conv_int+0xe6>
    14f6:	b6 fe       	sbrs	r11, 6
    14f8:	02 c0       	rjmp	.+4      	; 0x14fe <conv_int+0x90>
    14fa:	c2 60       	ori	r28, 0x02	; 2
    14fc:	01 c0       	rjmp	.+2      	; 0x1500 <conv_int+0x92>
    14fe:	c2 61       	ori	r28, 0x12	; 18
    1500:	da 2d       	mov	r29, r10
    1502:	81 2c       	mov	r8, r1
    1504:	91 2c       	mov	r9, r1
    1506:	54 01       	movw	r10, r8
    1508:	20 ed       	ldi	r18, 0xD0	; 208
    150a:	28 0f       	add	r18, r24
    150c:	28 30       	cpi	r18, 0x08	; 8
    150e:	80 f0       	brcs	.+32     	; 0x1530 <conv_int+0xc2>
    1510:	c4 ff       	sbrs	r28, 4
    1512:	04 c0       	rjmp	.+8      	; 0x151c <conv_int+0xae>
    1514:	b8 01       	movw	r22, r16
    1516:	0e 94 3c 0d 	call	0x1a78	; 0x1a78 <ungetc>
    151a:	19 c0       	rjmp	.+50     	; 0x154e <conv_int+0xe0>
    151c:	2a 30       	cpi	r18, 0x0A	; 10
    151e:	40 f0       	brcs	.+16     	; 0x1530 <conv_int+0xc2>
    1520:	c6 ff       	sbrs	r28, 6
    1522:	f8 cf       	rjmp	.-16     	; 0x1514 <conv_int+0xa6>
    1524:	2f 7d       	andi	r18, 0xDF	; 223
    1526:	3f ee       	ldi	r19, 0xEF	; 239
    1528:	32 0f       	add	r19, r18
    152a:	36 30       	cpi	r19, 0x06	; 6
    152c:	98 f7       	brcc	.-26     	; 0x1514 <conv_int+0xa6>
    152e:	27 50       	subi	r18, 0x07	; 7
    1530:	4c 2f       	mov	r20, r28
    1532:	c5 01       	movw	r24, r10
    1534:	b4 01       	movw	r22, r8
    1536:	0e 94 f7 09 	call	0x13ee	; 0x13ee <mulacc>
    153a:	4b 01       	movw	r8, r22
    153c:	5c 01       	movw	r10, r24
    153e:	c2 60       	ori	r28, 0x02	; 2
    1540:	d1 50       	subi	r29, 0x01	; 1
    1542:	59 f0       	breq	.+22     	; 0x155a <conv_int+0xec>
    1544:	c8 01       	movw	r24, r16
    1546:	0e 94 c2 0c 	call	0x1984	; 0x1984 <fgetc>
    154a:	97 ff       	sbrs	r25, 7
    154c:	dd cf       	rjmp	.-70     	; 0x1508 <conv_int+0x9a>
    154e:	c1 fd       	sbrc	r28, 1
    1550:	04 c0       	rjmp	.+8      	; 0x155a <conv_int+0xec>
    1552:	aa cf       	rjmp	.-172    	; 0x14a8 <conv_int+0x3a>
    1554:	81 2c       	mov	r8, r1
    1556:	91 2c       	mov	r9, r1
    1558:	54 01       	movw	r10, r8
    155a:	c7 ff       	sbrs	r28, 7
    155c:	08 c0       	rjmp	.+16     	; 0x156e <conv_int+0x100>
    155e:	b0 94       	com	r11
    1560:	a0 94       	com	r10
    1562:	90 94       	com	r9
    1564:	80 94       	com	r8
    1566:	81 1c       	adc	r8, r1
    1568:	91 1c       	adc	r9, r1
    156a:	a1 1c       	adc	r10, r1
    156c:	b1 1c       	adc	r11, r1
    156e:	2c 2f       	mov	r18, r28
    1570:	b5 01       	movw	r22, r10
    1572:	a4 01       	movw	r20, r8
    1574:	c7 01       	movw	r24, r14
    1576:	0e 94 eb 09 	call	0x13d6	; 0x13d6 <putval>
    157a:	81 e0       	ldi	r24, 0x01	; 1
    157c:	df 91       	pop	r29
    157e:	cf 91       	pop	r28
    1580:	1f 91       	pop	r17
    1582:	0f 91       	pop	r16
    1584:	ff 90       	pop	r15
    1586:	ef 90       	pop	r14
    1588:	bf 90       	pop	r11
    158a:	af 90       	pop	r10
    158c:	9f 90       	pop	r9
    158e:	8f 90       	pop	r8
    1590:	08 95       	ret

00001592 <conv_brk>:
    1592:	a0 e2       	ldi	r26, 0x20	; 32
    1594:	b0 e0       	ldi	r27, 0x00	; 0
    1596:	ef ec       	ldi	r30, 0xCF	; 207
    1598:	fa e0       	ldi	r31, 0x0A	; 10
    159a:	0c 94 d3 0d 	jmp	0x1ba6	; 0x1ba6 <__prologue_saves__+0x6>
    159e:	5c 01       	movw	r10, r24
    15a0:	96 2e       	mov	r9, r22
    15a2:	7a 01       	movw	r14, r20
    15a4:	f9 01       	movw	r30, r18
    15a6:	8e 01       	movw	r16, r28
    15a8:	0f 5f       	subi	r16, 0xFF	; 255
    15aa:	1f 4f       	sbci	r17, 0xFF	; 255
    15ac:	68 01       	movw	r12, r16
    15ae:	80 e2       	ldi	r24, 0x20	; 32
    15b0:	d8 01       	movw	r26, r16
    15b2:	1d 92       	st	X+, r1
    15b4:	8a 95       	dec	r24
    15b6:	e9 f7       	brne	.-6      	; 0x15b2 <conv_brk+0x20>
    15b8:	d5 01       	movw	r26, r10
    15ba:	13 96       	adiw	r26, 0x03	; 3
    15bc:	8c 90       	ld	r8, X
    15be:	80 e0       	ldi	r24, 0x00	; 0
    15c0:	90 e0       	ldi	r25, 0x00	; 0
    15c2:	61 2c       	mov	r6, r1
    15c4:	71 2c       	mov	r7, r1
    15c6:	30 e0       	ldi	r19, 0x00	; 0
    15c8:	61 e0       	ldi	r22, 0x01	; 1
    15ca:	70 e0       	ldi	r23, 0x00	; 0
    15cc:	83 fc       	sbrc	r8, 3
    15ce:	25 91       	lpm	r18, Z+
    15d0:	83 fe       	sbrs	r8, 3
    15d2:	21 91       	ld	r18, Z+
    15d4:	8f 01       	movw	r16, r30
    15d6:	52 2e       	mov	r5, r18
    15d8:	21 11       	cpse	r18, r1
    15da:	03 c0       	rjmp	.+6      	; 0x15e2 <conv_brk+0x50>
    15dc:	80 e0       	ldi	r24, 0x00	; 0
    15de:	90 e0       	ldi	r25, 0x00	; 0
    15e0:	92 c0       	rjmp	.+292    	; 0x1706 <conv_brk+0x174>
    15e2:	2e 35       	cpi	r18, 0x5E	; 94
    15e4:	11 f4       	brne	.+4      	; 0x15ea <conv_brk+0x58>
    15e6:	00 97       	sbiw	r24, 0x00	; 0
    15e8:	51 f1       	breq	.+84     	; 0x163e <conv_brk+0xac>
    15ea:	43 2f       	mov	r20, r19
    15ec:	50 e0       	ldi	r21, 0x00	; 0
    15ee:	48 17       	cp	r20, r24
    15f0:	59 07       	cpc	r21, r25
    15f2:	3c f4       	brge	.+14     	; 0x1602 <conv_brk+0x70>
    15f4:	2d 35       	cpi	r18, 0x5D	; 93
    15f6:	59 f1       	breq	.+86     	; 0x164e <conv_brk+0xbc>
    15f8:	2d 32       	cpi	r18, 0x2D	; 45
    15fa:	19 f4       	brne	.+6      	; 0x1602 <conv_brk+0x70>
    15fc:	77 20       	and	r7, r7
    15fe:	09 f1       	breq	.+66     	; 0x1642 <conv_brk+0xb0>
    1600:	03 c0       	rjmp	.+6      	; 0x1608 <conv_brk+0x76>
    1602:	77 20       	and	r7, r7
    1604:	09 f4       	brne	.+2      	; 0x1608 <conv_brk+0x76>
    1606:	6a c0       	rjmp	.+212    	; 0x16dc <conv_brk+0x14a>
    1608:	45 2d       	mov	r20, r5
    160a:	46 95       	lsr	r20
    160c:	46 95       	lsr	r20
    160e:	46 95       	lsr	r20
    1610:	d6 01       	movw	r26, r12
    1612:	a4 0f       	add	r26, r20
    1614:	b1 1d       	adc	r27, r1
    1616:	45 2d       	mov	r20, r5
    1618:	47 70       	andi	r20, 0x07	; 7
    161a:	8b 01       	movw	r16, r22
    161c:	02 c0       	rjmp	.+4      	; 0x1622 <conv_brk+0x90>
    161e:	00 0f       	add	r16, r16
    1620:	11 1f       	adc	r17, r17
    1622:	4a 95       	dec	r20
    1624:	e2 f7       	brpl	.-8      	; 0x161e <conv_brk+0x8c>
    1626:	a8 01       	movw	r20, r16
    1628:	5c 91       	ld	r21, X
    162a:	45 2b       	or	r20, r21
    162c:	4c 93       	st	X, r20
    162e:	65 14       	cp	r6, r5
    1630:	59 f0       	breq	.+22     	; 0x1648 <conv_brk+0xb6>
    1632:	56 14       	cp	r5, r6
    1634:	10 f4       	brcc	.+4      	; 0x163a <conv_brk+0xa8>
    1636:	53 94       	inc	r5
    1638:	e7 cf       	rjmp	.-50     	; 0x1608 <conv_brk+0x76>
    163a:	5a 94       	dec	r5
    163c:	e5 cf       	rjmp	.-54     	; 0x1608 <conv_brk+0x76>
    163e:	31 e0       	ldi	r19, 0x01	; 1
    1640:	04 c0       	rjmp	.+8      	; 0x164a <conv_brk+0xb8>
    1642:	77 24       	eor	r7, r7
    1644:	73 94       	inc	r7
    1646:	01 c0       	rjmp	.+2      	; 0x164a <conv_brk+0xb8>
    1648:	71 2c       	mov	r7, r1
    164a:	01 96       	adiw	r24, 0x01	; 1
    164c:	bf cf       	rjmp	.-130    	; 0x15cc <conv_brk+0x3a>
    164e:	77 20       	and	r7, r7
    1650:	19 f0       	breq	.+6      	; 0x1658 <conv_brk+0xc6>
    1652:	8e 81       	ldd	r24, Y+6	; 0x06
    1654:	80 62       	ori	r24, 0x20	; 32
    1656:	8e 83       	std	Y+6, r24	; 0x06
    1658:	31 11       	cpse	r19, r1
    165a:	03 c0       	rjmp	.+6      	; 0x1662 <conv_brk+0xd0>
    165c:	88 24       	eor	r8, r8
    165e:	83 94       	inc	r8
    1660:	17 c0       	rjmp	.+46     	; 0x1690 <conv_brk+0xfe>
    1662:	f6 01       	movw	r30, r12
    1664:	9e 01       	movw	r18, r28
    1666:	2f 5d       	subi	r18, 0xDF	; 223
    1668:	3f 4f       	sbci	r19, 0xFF	; 255
    166a:	80 81       	ld	r24, Z
    166c:	80 95       	com	r24
    166e:	81 93       	st	Z+, r24
    1670:	2e 17       	cp	r18, r30
    1672:	3f 07       	cpc	r19, r31
    1674:	d1 f7       	brne	.-12     	; 0x166a <conv_brk+0xd8>
    1676:	f2 cf       	rjmp	.-28     	; 0x165c <conv_brk+0xca>
    1678:	e1 14       	cp	r14, r1
    167a:	f1 04       	cpc	r15, r1
    167c:	29 f0       	breq	.+10     	; 0x1688 <conv_brk+0xf6>
    167e:	d7 01       	movw	r26, r14
    1680:	8c 93       	st	X, r24
    1682:	f7 01       	movw	r30, r14
    1684:	31 96       	adiw	r30, 0x01	; 1
    1686:	7f 01       	movw	r14, r30
    1688:	9a 94       	dec	r9
    168a:	81 2c       	mov	r8, r1
    168c:	99 20       	and	r9, r9
    168e:	f9 f0       	breq	.+62     	; 0x16ce <conv_brk+0x13c>
    1690:	c5 01       	movw	r24, r10
    1692:	0e 94 c2 0c 	call	0x1984	; 0x1984 <fgetc>
    1696:	97 fd       	sbrc	r25, 7
    1698:	18 c0       	rjmp	.+48     	; 0x16ca <conv_brk+0x138>
    169a:	fc 01       	movw	r30, r24
    169c:	ff 27       	eor	r31, r31
    169e:	23 e0       	ldi	r18, 0x03	; 3
    16a0:	f5 95       	asr	r31
    16a2:	e7 95       	ror	r30
    16a4:	2a 95       	dec	r18
    16a6:	e1 f7       	brne	.-8      	; 0x16a0 <conv_brk+0x10e>
    16a8:	ec 0d       	add	r30, r12
    16aa:	fd 1d       	adc	r31, r13
    16ac:	20 81       	ld	r18, Z
    16ae:	30 e0       	ldi	r19, 0x00	; 0
    16b0:	ac 01       	movw	r20, r24
    16b2:	47 70       	andi	r20, 0x07	; 7
    16b4:	55 27       	eor	r21, r21
    16b6:	02 c0       	rjmp	.+4      	; 0x16bc <conv_brk+0x12a>
    16b8:	35 95       	asr	r19
    16ba:	27 95       	ror	r18
    16bc:	4a 95       	dec	r20
    16be:	e2 f7       	brpl	.-8      	; 0x16b8 <conv_brk+0x126>
    16c0:	20 fd       	sbrc	r18, 0
    16c2:	da cf       	rjmp	.-76     	; 0x1678 <conv_brk+0xe6>
    16c4:	b5 01       	movw	r22, r10
    16c6:	0e 94 3c 0d 	call	0x1a78	; 0x1a78 <ungetc>
    16ca:	81 10       	cpse	r8, r1
    16cc:	87 cf       	rjmp	.-242    	; 0x15dc <conv_brk+0x4a>
    16ce:	e1 14       	cp	r14, r1
    16d0:	f1 04       	cpc	r15, r1
    16d2:	11 f0       	breq	.+4      	; 0x16d8 <conv_brk+0x146>
    16d4:	d7 01       	movw	r26, r14
    16d6:	1c 92       	st	X, r1
    16d8:	c8 01       	movw	r24, r16
    16da:	15 c0       	rjmp	.+42     	; 0x1706 <conv_brk+0x174>
    16dc:	42 2f       	mov	r20, r18
    16de:	46 95       	lsr	r20
    16e0:	46 95       	lsr	r20
    16e2:	46 95       	lsr	r20
    16e4:	d6 01       	movw	r26, r12
    16e6:	a4 0f       	add	r26, r20
    16e8:	b1 1d       	adc	r27, r1
    16ea:	42 2f       	mov	r20, r18
    16ec:	47 70       	andi	r20, 0x07	; 7
    16ee:	8b 01       	movw	r16, r22
    16f0:	02 c0       	rjmp	.+4      	; 0x16f6 <conv_brk+0x164>
    16f2:	00 0f       	add	r16, r16
    16f4:	11 1f       	adc	r17, r17
    16f6:	4a 95       	dec	r20
    16f8:	e2 f7       	brpl	.-8      	; 0x16f2 <conv_brk+0x160>
    16fa:	a8 01       	movw	r20, r16
    16fc:	5c 91       	ld	r21, X
    16fe:	45 2b       	or	r20, r21
    1700:	4c 93       	st	X, r20
    1702:	62 2e       	mov	r6, r18
    1704:	a2 cf       	rjmp	.-188    	; 0x164a <conv_brk+0xb8>
    1706:	a0 96       	adiw	r28, 0x20	; 32
    1708:	ef e0       	ldi	r30, 0x0F	; 15
    170a:	0c 94 ef 0d 	jmp	0x1bde	; 0x1bde <__epilogue_restores__+0x6>

0000170e <vfscanf>:
    170e:	a0 e0       	ldi	r26, 0x00	; 0
    1710:	b0 e0       	ldi	r27, 0x00	; 0
    1712:	ed e8       	ldi	r30, 0x8D	; 141
    1714:	fb e0       	ldi	r31, 0x0B	; 11
    1716:	0c 94 d3 0d 	jmp	0x1ba6	; 0x1ba6 <__prologue_saves__+0x6>
    171a:	6c 01       	movw	r12, r24
    171c:	eb 01       	movw	r28, r22
    171e:	5a 01       	movw	r10, r20
    1720:	fc 01       	movw	r30, r24
    1722:	17 82       	std	Z+7, r1	; 0x07
    1724:	16 82       	std	Z+6, r1	; 0x06
    1726:	51 2c       	mov	r5, r1
    1728:	f6 01       	movw	r30, r12
    172a:	e3 80       	ldd	r14, Z+3	; 0x03
    172c:	fe 01       	movw	r30, r28
    172e:	e3 fc       	sbrc	r14, 3
    1730:	85 91       	lpm	r24, Z+
    1732:	e3 fe       	sbrs	r14, 3
    1734:	81 91       	ld	r24, Z+
    1736:	18 2f       	mov	r17, r24
    1738:	ef 01       	movw	r28, r30
    173a:	88 23       	and	r24, r24
    173c:	09 f4       	brne	.+2      	; 0x1740 <vfscanf+0x32>
    173e:	ee c0       	rjmp	.+476    	; 0x191c <vfscanf+0x20e>
    1740:	90 e0       	ldi	r25, 0x00	; 0
    1742:	0e 94 98 0c 	call	0x1930	; 0x1930 <isspace>
    1746:	89 2b       	or	r24, r25
    1748:	21 f0       	breq	.+8      	; 0x1752 <vfscanf+0x44>
    174a:	c6 01       	movw	r24, r12
    174c:	0e 94 1e 0a 	call	0x143c	; 0x143c <skip_spaces>
    1750:	eb cf       	rjmp	.-42     	; 0x1728 <vfscanf+0x1a>
    1752:	15 32       	cpi	r17, 0x25	; 37
    1754:	41 f4       	brne	.+16     	; 0x1766 <vfscanf+0x58>
    1756:	fe 01       	movw	r30, r28
    1758:	e3 fc       	sbrc	r14, 3
    175a:	15 91       	lpm	r17, Z+
    175c:	e3 fe       	sbrs	r14, 3
    175e:	11 91       	ld	r17, Z+
    1760:	ef 01       	movw	r28, r30
    1762:	15 32       	cpi	r17, 0x25	; 37
    1764:	81 f4       	brne	.+32     	; 0x1786 <vfscanf+0x78>
    1766:	c6 01       	movw	r24, r12
    1768:	0e 94 c2 0c 	call	0x1984	; 0x1984 <fgetc>
    176c:	97 fd       	sbrc	r25, 7
    176e:	d4 c0       	rjmp	.+424    	; 0x1918 <vfscanf+0x20a>
    1770:	41 2f       	mov	r20, r17
    1772:	50 e0       	ldi	r21, 0x00	; 0
    1774:	9c 01       	movw	r18, r24
    1776:	33 27       	eor	r19, r19
    1778:	24 17       	cp	r18, r20
    177a:	35 07       	cpc	r19, r21
    177c:	a9 f2       	breq	.-86     	; 0x1728 <vfscanf+0x1a>
    177e:	b6 01       	movw	r22, r12
    1780:	0e 94 3c 0d 	call	0x1a78	; 0x1a78 <ungetc>
    1784:	cb c0       	rjmp	.+406    	; 0x191c <vfscanf+0x20e>
    1786:	1a 32       	cpi	r17, 0x2A	; 42
    1788:	39 f4       	brne	.+14     	; 0x1798 <vfscanf+0x8a>
    178a:	e3 fc       	sbrc	r14, 3
    178c:	15 91       	lpm	r17, Z+
    178e:	e3 fe       	sbrs	r14, 3
    1790:	11 91       	ld	r17, Z+
    1792:	ef 01       	movw	r28, r30
    1794:	01 e0       	ldi	r16, 0x01	; 1
    1796:	01 c0       	rjmp	.+2      	; 0x179a <vfscanf+0x8c>
    1798:	00 e0       	ldi	r16, 0x00	; 0
    179a:	f1 2c       	mov	r15, r1
    179c:	20 ed       	ldi	r18, 0xD0	; 208
    179e:	21 0f       	add	r18, r17
    17a0:	2a 30       	cpi	r18, 0x0A	; 10
    17a2:	80 f4       	brcc	.+32     	; 0x17c4 <vfscanf+0xb6>
    17a4:	02 60       	ori	r16, 0x02	; 2
    17a6:	6f 2d       	mov	r22, r15
    17a8:	70 e0       	ldi	r23, 0x00	; 0
    17aa:	80 e0       	ldi	r24, 0x00	; 0
    17ac:	90 e0       	ldi	r25, 0x00	; 0
    17ae:	40 e2       	ldi	r20, 0x20	; 32
    17b0:	0e 94 f7 09 	call	0x13ee	; 0x13ee <mulacc>
    17b4:	f6 2e       	mov	r15, r22
    17b6:	fe 01       	movw	r30, r28
    17b8:	e3 fc       	sbrc	r14, 3
    17ba:	15 91       	lpm	r17, Z+
    17bc:	e3 fe       	sbrs	r14, 3
    17be:	11 91       	ld	r17, Z+
    17c0:	ef 01       	movw	r28, r30
    17c2:	ec cf       	rjmp	.-40     	; 0x179c <vfscanf+0x8e>
    17c4:	01 ff       	sbrs	r16, 1
    17c6:	03 c0       	rjmp	.+6      	; 0x17ce <vfscanf+0xc0>
    17c8:	f1 10       	cpse	r15, r1
    17ca:	03 c0       	rjmp	.+6      	; 0x17d2 <vfscanf+0xc4>
    17cc:	a7 c0       	rjmp	.+334    	; 0x191c <vfscanf+0x20e>
    17ce:	ff 24       	eor	r15, r15
    17d0:	fa 94       	dec	r15
    17d2:	18 36       	cpi	r17, 0x68	; 104
    17d4:	19 f0       	breq	.+6      	; 0x17dc <vfscanf+0xce>
    17d6:	1c 36       	cpi	r17, 0x6C	; 108
    17d8:	51 f0       	breq	.+20     	; 0x17ee <vfscanf+0xe0>
    17da:	10 c0       	rjmp	.+32     	; 0x17fc <vfscanf+0xee>
    17dc:	fe 01       	movw	r30, r28
    17de:	e3 fc       	sbrc	r14, 3
    17e0:	15 91       	lpm	r17, Z+
    17e2:	e3 fe       	sbrs	r14, 3
    17e4:	11 91       	ld	r17, Z+
    17e6:	ef 01       	movw	r28, r30
    17e8:	18 36       	cpi	r17, 0x68	; 104
    17ea:	41 f4       	brne	.+16     	; 0x17fc <vfscanf+0xee>
    17ec:	08 60       	ori	r16, 0x08	; 8
    17ee:	04 60       	ori	r16, 0x04	; 4
    17f0:	fe 01       	movw	r30, r28
    17f2:	e3 fc       	sbrc	r14, 3
    17f4:	15 91       	lpm	r17, Z+
    17f6:	e3 fe       	sbrs	r14, 3
    17f8:	11 91       	ld	r17, Z+
    17fa:	ef 01       	movw	r28, r30
    17fc:	11 23       	and	r17, r17
    17fe:	09 f4       	brne	.+2      	; 0x1802 <vfscanf+0xf4>
    1800:	8d c0       	rjmp	.+282    	; 0x191c <vfscanf+0x20e>
    1802:	61 2f       	mov	r22, r17
    1804:	70 e0       	ldi	r23, 0x00	; 0
    1806:	88 e6       	ldi	r24, 0x68	; 104
    1808:	90 e0       	ldi	r25, 0x00	; 0
    180a:	0e 94 a1 0c 	call	0x1942	; 0x1942 <strchr_P>
    180e:	89 2b       	or	r24, r25
    1810:	09 f4       	brne	.+2      	; 0x1814 <vfscanf+0x106>
    1812:	84 c0       	rjmp	.+264    	; 0x191c <vfscanf+0x20e>
    1814:	00 fd       	sbrc	r16, 0
    1816:	07 c0       	rjmp	.+14     	; 0x1826 <vfscanf+0x118>
    1818:	f5 01       	movw	r30, r10
    181a:	80 80       	ld	r8, Z
    181c:	91 80       	ldd	r9, Z+1	; 0x01
    181e:	c5 01       	movw	r24, r10
    1820:	02 96       	adiw	r24, 0x02	; 2
    1822:	5c 01       	movw	r10, r24
    1824:	02 c0       	rjmp	.+4      	; 0x182a <vfscanf+0x11c>
    1826:	81 2c       	mov	r8, r1
    1828:	91 2c       	mov	r9, r1
    182a:	1e 36       	cpi	r17, 0x6E	; 110
    182c:	51 f4       	brne	.+20     	; 0x1842 <vfscanf+0x134>
    182e:	f6 01       	movw	r30, r12
    1830:	46 81       	ldd	r20, Z+6	; 0x06
    1832:	57 81       	ldd	r21, Z+7	; 0x07
    1834:	60 e0       	ldi	r22, 0x00	; 0
    1836:	70 e0       	ldi	r23, 0x00	; 0
    1838:	20 2f       	mov	r18, r16
    183a:	c4 01       	movw	r24, r8
    183c:	0e 94 eb 09 	call	0x13d6	; 0x13d6 <putval>
    1840:	73 cf       	rjmp	.-282    	; 0x1728 <vfscanf+0x1a>
    1842:	13 36       	cpi	r17, 0x63	; 99
    1844:	a9 f4       	brne	.+42     	; 0x1870 <vfscanf+0x162>
    1846:	01 fd       	sbrc	r16, 1
    1848:	02 c0       	rjmp	.+4      	; 0x184e <vfscanf+0x140>
    184a:	ff 24       	eor	r15, r15
    184c:	f3 94       	inc	r15
    184e:	c6 01       	movw	r24, r12
    1850:	0e 94 c2 0c 	call	0x1984	; 0x1984 <fgetc>
    1854:	97 fd       	sbrc	r25, 7
    1856:	60 c0       	rjmp	.+192    	; 0x1918 <vfscanf+0x20a>
    1858:	81 14       	cp	r8, r1
    185a:	91 04       	cpc	r9, r1
    185c:	29 f0       	breq	.+10     	; 0x1868 <vfscanf+0x15a>
    185e:	f4 01       	movw	r30, r8
    1860:	80 83       	st	Z, r24
    1862:	c4 01       	movw	r24, r8
    1864:	01 96       	adiw	r24, 0x01	; 1
    1866:	4c 01       	movw	r8, r24
    1868:	fa 94       	dec	r15
    186a:	f1 10       	cpse	r15, r1
    186c:	f0 cf       	rjmp	.-32     	; 0x184e <vfscanf+0x140>
    186e:	50 c0       	rjmp	.+160    	; 0x1910 <vfscanf+0x202>
    1870:	1b 35       	cpi	r17, 0x5B	; 91
    1872:	59 f4       	brne	.+22     	; 0x188a <vfscanf+0x17c>
    1874:	9e 01       	movw	r18, r28
    1876:	a4 01       	movw	r20, r8
    1878:	6f 2d       	mov	r22, r15
    187a:	c6 01       	movw	r24, r12
    187c:	0e 94 c9 0a 	call	0x1592	; 0x1592 <conv_brk>
    1880:	ec 01       	movw	r28, r24
    1882:	89 2b       	or	r24, r25
    1884:	09 f0       	breq	.+2      	; 0x1888 <vfscanf+0x17a>
    1886:	44 c0       	rjmp	.+136    	; 0x1910 <vfscanf+0x202>
    1888:	3e c0       	rjmp	.+124    	; 0x1906 <vfscanf+0x1f8>
    188a:	c6 01       	movw	r24, r12
    188c:	0e 94 1e 0a 	call	0x143c	; 0x143c <skip_spaces>
    1890:	97 fd       	sbrc	r25, 7
    1892:	42 c0       	rjmp	.+132    	; 0x1918 <vfscanf+0x20a>
    1894:	1f 36       	cpi	r17, 0x6F	; 111
    1896:	61 f1       	breq	.+88     	; 0x18f0 <vfscanf+0x1e2>
    1898:	28 f4       	brcc	.+10     	; 0x18a4 <vfscanf+0x196>
    189a:	14 36       	cpi	r17, 0x64	; 100
    189c:	39 f1       	breq	.+78     	; 0x18ec <vfscanf+0x1de>
    189e:	19 36       	cpi	r17, 0x69	; 105
    18a0:	51 f1       	breq	.+84     	; 0x18f6 <vfscanf+0x1e8>
    18a2:	28 c0       	rjmp	.+80     	; 0x18f4 <vfscanf+0x1e6>
    18a4:	13 37       	cpi	r17, 0x73	; 115
    18a6:	71 f0       	breq	.+28     	; 0x18c4 <vfscanf+0x1b6>
    18a8:	15 37       	cpi	r17, 0x75	; 117
    18aa:	01 f1       	breq	.+64     	; 0x18ec <vfscanf+0x1de>
    18ac:	23 c0       	rjmp	.+70     	; 0x18f4 <vfscanf+0x1e6>
    18ae:	81 14       	cp	r8, r1
    18b0:	91 04       	cpc	r9, r1
    18b2:	29 f0       	breq	.+10     	; 0x18be <vfscanf+0x1b0>
    18b4:	f4 01       	movw	r30, r8
    18b6:	60 82       	st	Z, r6
    18b8:	c4 01       	movw	r24, r8
    18ba:	01 96       	adiw	r24, 0x01	; 1
    18bc:	4c 01       	movw	r8, r24
    18be:	fa 94       	dec	r15
    18c0:	ff 20       	and	r15, r15
    18c2:	71 f0       	breq	.+28     	; 0x18e0 <vfscanf+0x1d2>
    18c4:	c6 01       	movw	r24, r12
    18c6:	0e 94 c2 0c 	call	0x1984	; 0x1984 <fgetc>
    18ca:	3c 01       	movw	r6, r24
    18cc:	97 fd       	sbrc	r25, 7
    18ce:	08 c0       	rjmp	.+16     	; 0x18e0 <vfscanf+0x1d2>
    18d0:	0e 94 98 0c 	call	0x1930	; 0x1930 <isspace>
    18d4:	89 2b       	or	r24, r25
    18d6:	59 f3       	breq	.-42     	; 0x18ae <vfscanf+0x1a0>
    18d8:	b6 01       	movw	r22, r12
    18da:	c3 01       	movw	r24, r6
    18dc:	0e 94 3c 0d 	call	0x1a78	; 0x1a78 <ungetc>
    18e0:	81 14       	cp	r8, r1
    18e2:	91 04       	cpc	r9, r1
    18e4:	a9 f0       	breq	.+42     	; 0x1910 <vfscanf+0x202>
    18e6:	f4 01       	movw	r30, r8
    18e8:	10 82       	st	Z, r1
    18ea:	12 c0       	rjmp	.+36     	; 0x1910 <vfscanf+0x202>
    18ec:	00 62       	ori	r16, 0x20	; 32
    18ee:	03 c0       	rjmp	.+6      	; 0x18f6 <vfscanf+0x1e8>
    18f0:	00 61       	ori	r16, 0x10	; 16
    18f2:	01 c0       	rjmp	.+2      	; 0x18f6 <vfscanf+0x1e8>
    18f4:	00 64       	ori	r16, 0x40	; 64
    18f6:	20 2f       	mov	r18, r16
    18f8:	a4 01       	movw	r20, r8
    18fa:	6f 2d       	mov	r22, r15
    18fc:	c6 01       	movw	r24, r12
    18fe:	0e 94 37 0a 	call	0x146e	; 0x146e <conv_int>
    1902:	81 11       	cpse	r24, r1
    1904:	05 c0       	rjmp	.+10     	; 0x1910 <vfscanf+0x202>
    1906:	f6 01       	movw	r30, r12
    1908:	83 81       	ldd	r24, Z+3	; 0x03
    190a:	80 73       	andi	r24, 0x30	; 48
    190c:	29 f4       	brne	.+10     	; 0x1918 <vfscanf+0x20a>
    190e:	06 c0       	rjmp	.+12     	; 0x191c <vfscanf+0x20e>
    1910:	00 fd       	sbrc	r16, 0
    1912:	0a cf       	rjmp	.-492    	; 0x1728 <vfscanf+0x1a>
    1914:	53 94       	inc	r5
    1916:	08 cf       	rjmp	.-496    	; 0x1728 <vfscanf+0x1a>
    1918:	55 20       	and	r5, r5
    191a:	19 f0       	breq	.+6      	; 0x1922 <vfscanf+0x214>
    191c:	85 2d       	mov	r24, r5
    191e:	90 e0       	ldi	r25, 0x00	; 0
    1920:	02 c0       	rjmp	.+4      	; 0x1926 <vfscanf+0x218>
    1922:	8f ef       	ldi	r24, 0xFF	; 255
    1924:	9f ef       	ldi	r25, 0xFF	; 255
    1926:	cd b7       	in	r28, 0x3d	; 61
    1928:	de b7       	in	r29, 0x3e	; 62
    192a:	ef e0       	ldi	r30, 0x0F	; 15
    192c:	0c 94 ef 0d 	jmp	0x1bde	; 0x1bde <__epilogue_restores__+0x6>

00001930 <isspace>:
    1930:	91 11       	cpse	r25, r1
    1932:	0c 94 b3 0d 	jmp	0x1b66	; 0x1b66 <__ctype_isfalse>
    1936:	80 32       	cpi	r24, 0x20	; 32
    1938:	19 f0       	breq	.+6      	; 0x1940 <isspace+0x10>
    193a:	89 50       	subi	r24, 0x09	; 9
    193c:	85 50       	subi	r24, 0x05	; 5
    193e:	c8 f7       	brcc	.-14     	; 0x1932 <isspace+0x2>
    1940:	08 95       	ret

00001942 <strchr_P>:
    1942:	fc 01       	movw	r30, r24
    1944:	05 90       	lpm	r0, Z+
    1946:	06 16       	cp	r0, r22
    1948:	21 f0       	breq	.+8      	; 0x1952 <strchr_P+0x10>
    194a:	00 20       	and	r0, r0
    194c:	d9 f7       	brne	.-10     	; 0x1944 <strchr_P+0x2>
    194e:	c0 01       	movw	r24, r0
    1950:	08 95       	ret
    1952:	31 97       	sbiw	r30, 0x01	; 1
    1954:	cf 01       	movw	r24, r30
    1956:	08 95       	ret

00001958 <strnlen_P>:
    1958:	fc 01       	movw	r30, r24
    195a:	05 90       	lpm	r0, Z+
    195c:	61 50       	subi	r22, 0x01	; 1
    195e:	70 40       	sbci	r23, 0x00	; 0
    1960:	01 10       	cpse	r0, r1
    1962:	d8 f7       	brcc	.-10     	; 0x195a <strnlen_P+0x2>
    1964:	80 95       	com	r24
    1966:	90 95       	com	r25
    1968:	8e 0f       	add	r24, r30
    196a:	9f 1f       	adc	r25, r31
    196c:	08 95       	ret

0000196e <strnlen>:
    196e:	fc 01       	movw	r30, r24
    1970:	61 50       	subi	r22, 0x01	; 1
    1972:	70 40       	sbci	r23, 0x00	; 0
    1974:	01 90       	ld	r0, Z+
    1976:	01 10       	cpse	r0, r1
    1978:	d8 f7       	brcc	.-10     	; 0x1970 <strnlen+0x2>
    197a:	80 95       	com	r24
    197c:	90 95       	com	r25
    197e:	8e 0f       	add	r24, r30
    1980:	9f 1f       	adc	r25, r31
    1982:	08 95       	ret

00001984 <fgetc>:
    1984:	cf 93       	push	r28
    1986:	df 93       	push	r29
    1988:	ec 01       	movw	r28, r24
    198a:	2b 81       	ldd	r18, Y+3	; 0x03
    198c:	20 ff       	sbrs	r18, 0
    198e:	33 c0       	rjmp	.+102    	; 0x19f6 <fgetc+0x72>
    1990:	26 ff       	sbrs	r18, 6
    1992:	0a c0       	rjmp	.+20     	; 0x19a8 <fgetc+0x24>
    1994:	2f 7b       	andi	r18, 0xBF	; 191
    1996:	2b 83       	std	Y+3, r18	; 0x03
    1998:	8e 81       	ldd	r24, Y+6	; 0x06
    199a:	9f 81       	ldd	r25, Y+7	; 0x07
    199c:	01 96       	adiw	r24, 0x01	; 1
    199e:	9f 83       	std	Y+7, r25	; 0x07
    19a0:	8e 83       	std	Y+6, r24	; 0x06
    19a2:	8a 81       	ldd	r24, Y+2	; 0x02
    19a4:	90 e0       	ldi	r25, 0x00	; 0
    19a6:	29 c0       	rjmp	.+82     	; 0x19fa <fgetc+0x76>
    19a8:	22 ff       	sbrs	r18, 2
    19aa:	0f c0       	rjmp	.+30     	; 0x19ca <fgetc+0x46>
    19ac:	e8 81       	ld	r30, Y
    19ae:	f9 81       	ldd	r31, Y+1	; 0x01
    19b0:	80 81       	ld	r24, Z
    19b2:	08 2e       	mov	r0, r24
    19b4:	00 0c       	add	r0, r0
    19b6:	99 0b       	sbc	r25, r25
    19b8:	00 97       	sbiw	r24, 0x00	; 0
    19ba:	19 f4       	brne	.+6      	; 0x19c2 <fgetc+0x3e>
    19bc:	20 62       	ori	r18, 0x20	; 32
    19be:	2b 83       	std	Y+3, r18	; 0x03
    19c0:	1a c0       	rjmp	.+52     	; 0x19f6 <fgetc+0x72>
    19c2:	31 96       	adiw	r30, 0x01	; 1
    19c4:	f9 83       	std	Y+1, r31	; 0x01
    19c6:	e8 83       	st	Y, r30
    19c8:	0e c0       	rjmp	.+28     	; 0x19e6 <fgetc+0x62>
    19ca:	ea 85       	ldd	r30, Y+10	; 0x0a
    19cc:	fb 85       	ldd	r31, Y+11	; 0x0b
    19ce:	09 95       	icall
    19d0:	97 ff       	sbrs	r25, 7
    19d2:	09 c0       	rjmp	.+18     	; 0x19e6 <fgetc+0x62>
    19d4:	2b 81       	ldd	r18, Y+3	; 0x03
    19d6:	01 96       	adiw	r24, 0x01	; 1
    19d8:	11 f0       	breq	.+4      	; 0x19de <fgetc+0x5a>
    19da:	80 e2       	ldi	r24, 0x20	; 32
    19dc:	01 c0       	rjmp	.+2      	; 0x19e0 <fgetc+0x5c>
    19de:	80 e1       	ldi	r24, 0x10	; 16
    19e0:	82 2b       	or	r24, r18
    19e2:	8b 83       	std	Y+3, r24	; 0x03
    19e4:	08 c0       	rjmp	.+16     	; 0x19f6 <fgetc+0x72>
    19e6:	2e 81       	ldd	r18, Y+6	; 0x06
    19e8:	3f 81       	ldd	r19, Y+7	; 0x07
    19ea:	2f 5f       	subi	r18, 0xFF	; 255
    19ec:	3f 4f       	sbci	r19, 0xFF	; 255
    19ee:	3f 83       	std	Y+7, r19	; 0x07
    19f0:	2e 83       	std	Y+6, r18	; 0x06
    19f2:	99 27       	eor	r25, r25
    19f4:	02 c0       	rjmp	.+4      	; 0x19fa <fgetc+0x76>
    19f6:	8f ef       	ldi	r24, 0xFF	; 255
    19f8:	9f ef       	ldi	r25, 0xFF	; 255
    19fa:	df 91       	pop	r29
    19fc:	cf 91       	pop	r28
    19fe:	08 95       	ret

00001a00 <fputc>:
    1a00:	0f 93       	push	r16
    1a02:	1f 93       	push	r17
    1a04:	cf 93       	push	r28
    1a06:	df 93       	push	r29
    1a08:	fb 01       	movw	r30, r22
    1a0a:	23 81       	ldd	r18, Z+3	; 0x03
    1a0c:	21 fd       	sbrc	r18, 1
    1a0e:	03 c0       	rjmp	.+6      	; 0x1a16 <fputc+0x16>
    1a10:	8f ef       	ldi	r24, 0xFF	; 255
    1a12:	9f ef       	ldi	r25, 0xFF	; 255
    1a14:	2c c0       	rjmp	.+88     	; 0x1a6e <fputc+0x6e>
    1a16:	22 ff       	sbrs	r18, 2
    1a18:	16 c0       	rjmp	.+44     	; 0x1a46 <fputc+0x46>
    1a1a:	46 81       	ldd	r20, Z+6	; 0x06
    1a1c:	57 81       	ldd	r21, Z+7	; 0x07
    1a1e:	24 81       	ldd	r18, Z+4	; 0x04
    1a20:	35 81       	ldd	r19, Z+5	; 0x05
    1a22:	42 17       	cp	r20, r18
    1a24:	53 07       	cpc	r21, r19
    1a26:	44 f4       	brge	.+16     	; 0x1a38 <fputc+0x38>
    1a28:	a0 81       	ld	r26, Z
    1a2a:	b1 81       	ldd	r27, Z+1	; 0x01
    1a2c:	9d 01       	movw	r18, r26
    1a2e:	2f 5f       	subi	r18, 0xFF	; 255
    1a30:	3f 4f       	sbci	r19, 0xFF	; 255
    1a32:	31 83       	std	Z+1, r19	; 0x01
    1a34:	20 83       	st	Z, r18
    1a36:	8c 93       	st	X, r24
    1a38:	26 81       	ldd	r18, Z+6	; 0x06
    1a3a:	37 81       	ldd	r19, Z+7	; 0x07
    1a3c:	2f 5f       	subi	r18, 0xFF	; 255
    1a3e:	3f 4f       	sbci	r19, 0xFF	; 255
    1a40:	37 83       	std	Z+7, r19	; 0x07
    1a42:	26 83       	std	Z+6, r18	; 0x06
    1a44:	14 c0       	rjmp	.+40     	; 0x1a6e <fputc+0x6e>
    1a46:	8b 01       	movw	r16, r22
    1a48:	ec 01       	movw	r28, r24
    1a4a:	fb 01       	movw	r30, r22
    1a4c:	00 84       	ldd	r0, Z+8	; 0x08
    1a4e:	f1 85       	ldd	r31, Z+9	; 0x09
    1a50:	e0 2d       	mov	r30, r0
    1a52:	09 95       	icall
    1a54:	89 2b       	or	r24, r25
    1a56:	e1 f6       	brne	.-72     	; 0x1a10 <fputc+0x10>
    1a58:	d8 01       	movw	r26, r16
    1a5a:	16 96       	adiw	r26, 0x06	; 6
    1a5c:	8d 91       	ld	r24, X+
    1a5e:	9c 91       	ld	r25, X
    1a60:	17 97       	sbiw	r26, 0x07	; 7
    1a62:	01 96       	adiw	r24, 0x01	; 1
    1a64:	17 96       	adiw	r26, 0x07	; 7
    1a66:	9c 93       	st	X, r25
    1a68:	8e 93       	st	-X, r24
    1a6a:	16 97       	sbiw	r26, 0x06	; 6
    1a6c:	ce 01       	movw	r24, r28
    1a6e:	df 91       	pop	r29
    1a70:	cf 91       	pop	r28
    1a72:	1f 91       	pop	r17
    1a74:	0f 91       	pop	r16
    1a76:	08 95       	ret

00001a78 <ungetc>:
    1a78:	fb 01       	movw	r30, r22
    1a7a:	23 81       	ldd	r18, Z+3	; 0x03
    1a7c:	20 ff       	sbrs	r18, 0
    1a7e:	12 c0       	rjmp	.+36     	; 0x1aa4 <ungetc+0x2c>
    1a80:	26 fd       	sbrc	r18, 6
    1a82:	10 c0       	rjmp	.+32     	; 0x1aa4 <ungetc+0x2c>
    1a84:	8f 3f       	cpi	r24, 0xFF	; 255
    1a86:	3f ef       	ldi	r19, 0xFF	; 255
    1a88:	93 07       	cpc	r25, r19
    1a8a:	61 f0       	breq	.+24     	; 0x1aa4 <ungetc+0x2c>
    1a8c:	82 83       	std	Z+2, r24	; 0x02
    1a8e:	2f 7d       	andi	r18, 0xDF	; 223
    1a90:	20 64       	ori	r18, 0x40	; 64
    1a92:	23 83       	std	Z+3, r18	; 0x03
    1a94:	26 81       	ldd	r18, Z+6	; 0x06
    1a96:	37 81       	ldd	r19, Z+7	; 0x07
    1a98:	21 50       	subi	r18, 0x01	; 1
    1a9a:	31 09       	sbc	r19, r1
    1a9c:	37 83       	std	Z+7, r19	; 0x07
    1a9e:	26 83       	std	Z+6, r18	; 0x06
    1aa0:	99 27       	eor	r25, r25
    1aa2:	08 95       	ret
    1aa4:	8f ef       	ldi	r24, 0xFF	; 255
    1aa6:	9f ef       	ldi	r25, 0xFF	; 255
    1aa8:	08 95       	ret

00001aaa <__ultoa_invert>:
    1aaa:	fa 01       	movw	r30, r20
    1aac:	aa 27       	eor	r26, r26
    1aae:	28 30       	cpi	r18, 0x08	; 8
    1ab0:	51 f1       	breq	.+84     	; 0x1b06 <__ultoa_invert+0x5c>
    1ab2:	20 31       	cpi	r18, 0x10	; 16
    1ab4:	81 f1       	breq	.+96     	; 0x1b16 <__ultoa_invert+0x6c>
    1ab6:	e8 94       	clt
    1ab8:	6f 93       	push	r22
    1aba:	6e 7f       	andi	r22, 0xFE	; 254
    1abc:	6e 5f       	subi	r22, 0xFE	; 254
    1abe:	7f 4f       	sbci	r23, 0xFF	; 255
    1ac0:	8f 4f       	sbci	r24, 0xFF	; 255
    1ac2:	9f 4f       	sbci	r25, 0xFF	; 255
    1ac4:	af 4f       	sbci	r26, 0xFF	; 255
    1ac6:	b1 e0       	ldi	r27, 0x01	; 1
    1ac8:	3e d0       	rcall	.+124    	; 0x1b46 <__ultoa_invert+0x9c>
    1aca:	b4 e0       	ldi	r27, 0x04	; 4
    1acc:	3c d0       	rcall	.+120    	; 0x1b46 <__ultoa_invert+0x9c>
    1ace:	67 0f       	add	r22, r23
    1ad0:	78 1f       	adc	r23, r24
    1ad2:	89 1f       	adc	r24, r25
    1ad4:	9a 1f       	adc	r25, r26
    1ad6:	a1 1d       	adc	r26, r1
    1ad8:	68 0f       	add	r22, r24
    1ada:	79 1f       	adc	r23, r25
    1adc:	8a 1f       	adc	r24, r26
    1ade:	91 1d       	adc	r25, r1
    1ae0:	a1 1d       	adc	r26, r1
    1ae2:	6a 0f       	add	r22, r26
    1ae4:	71 1d       	adc	r23, r1
    1ae6:	81 1d       	adc	r24, r1
    1ae8:	91 1d       	adc	r25, r1
    1aea:	a1 1d       	adc	r26, r1
    1aec:	20 d0       	rcall	.+64     	; 0x1b2e <__ultoa_invert+0x84>
    1aee:	09 f4       	brne	.+2      	; 0x1af2 <__ultoa_invert+0x48>
    1af0:	68 94       	set
    1af2:	3f 91       	pop	r19
    1af4:	2a e0       	ldi	r18, 0x0A	; 10
    1af6:	26 9f       	mul	r18, r22
    1af8:	11 24       	eor	r1, r1
    1afa:	30 19       	sub	r19, r0
    1afc:	30 5d       	subi	r19, 0xD0	; 208
    1afe:	31 93       	st	Z+, r19
    1b00:	de f6       	brtc	.-74     	; 0x1ab8 <__ultoa_invert+0xe>
    1b02:	cf 01       	movw	r24, r30
    1b04:	08 95       	ret
    1b06:	46 2f       	mov	r20, r22
    1b08:	47 70       	andi	r20, 0x07	; 7
    1b0a:	40 5d       	subi	r20, 0xD0	; 208
    1b0c:	41 93       	st	Z+, r20
    1b0e:	b3 e0       	ldi	r27, 0x03	; 3
    1b10:	0f d0       	rcall	.+30     	; 0x1b30 <__ultoa_invert+0x86>
    1b12:	c9 f7       	brne	.-14     	; 0x1b06 <__ultoa_invert+0x5c>
    1b14:	f6 cf       	rjmp	.-20     	; 0x1b02 <__ultoa_invert+0x58>
    1b16:	46 2f       	mov	r20, r22
    1b18:	4f 70       	andi	r20, 0x0F	; 15
    1b1a:	40 5d       	subi	r20, 0xD0	; 208
    1b1c:	4a 33       	cpi	r20, 0x3A	; 58
    1b1e:	18 f0       	brcs	.+6      	; 0x1b26 <__ultoa_invert+0x7c>
    1b20:	49 5d       	subi	r20, 0xD9	; 217
    1b22:	31 fd       	sbrc	r19, 1
    1b24:	40 52       	subi	r20, 0x20	; 32
    1b26:	41 93       	st	Z+, r20
    1b28:	02 d0       	rcall	.+4      	; 0x1b2e <__ultoa_invert+0x84>
    1b2a:	a9 f7       	brne	.-22     	; 0x1b16 <__ultoa_invert+0x6c>
    1b2c:	ea cf       	rjmp	.-44     	; 0x1b02 <__ultoa_invert+0x58>
    1b2e:	b4 e0       	ldi	r27, 0x04	; 4
    1b30:	a6 95       	lsr	r26
    1b32:	97 95       	ror	r25
    1b34:	87 95       	ror	r24
    1b36:	77 95       	ror	r23
    1b38:	67 95       	ror	r22
    1b3a:	ba 95       	dec	r27
    1b3c:	c9 f7       	brne	.-14     	; 0x1b30 <__ultoa_invert+0x86>
    1b3e:	00 97       	sbiw	r24, 0x00	; 0
    1b40:	61 05       	cpc	r22, r1
    1b42:	71 05       	cpc	r23, r1
    1b44:	08 95       	ret
    1b46:	9b 01       	movw	r18, r22
    1b48:	ac 01       	movw	r20, r24
    1b4a:	0a 2e       	mov	r0, r26
    1b4c:	06 94       	lsr	r0
    1b4e:	57 95       	ror	r21
    1b50:	47 95       	ror	r20
    1b52:	37 95       	ror	r19
    1b54:	27 95       	ror	r18
    1b56:	ba 95       	dec	r27
    1b58:	c9 f7       	brne	.-14     	; 0x1b4c <__ultoa_invert+0xa2>
    1b5a:	62 0f       	add	r22, r18
    1b5c:	73 1f       	adc	r23, r19
    1b5e:	84 1f       	adc	r24, r20
    1b60:	95 1f       	adc	r25, r21
    1b62:	a0 1d       	adc	r26, r0
    1b64:	08 95       	ret

00001b66 <__ctype_isfalse>:
    1b66:	99 27       	eor	r25, r25
    1b68:	88 27       	eor	r24, r24

00001b6a <__ctype_istrue>:
    1b6a:	08 95       	ret

00001b6c <eeprom_read_byte>:
    1b6c:	f9 99       	sbic	0x1f, 1	; 31
    1b6e:	fe cf       	rjmp	.-4      	; 0x1b6c <eeprom_read_byte>
    1b70:	92 bd       	out	0x22, r25	; 34
    1b72:	81 bd       	out	0x21, r24	; 33
    1b74:	f8 9a       	sbi	0x1f, 0	; 31
    1b76:	99 27       	eor	r25, r25
    1b78:	80 b5       	in	r24, 0x20	; 32
    1b7a:	08 95       	ret

00001b7c <eeprom_update_byte>:
    1b7c:	26 2f       	mov	r18, r22

00001b7e <eeprom_update_r18>:
    1b7e:	f9 99       	sbic	0x1f, 1	; 31
    1b80:	fe cf       	rjmp	.-4      	; 0x1b7e <eeprom_update_r18>
    1b82:	92 bd       	out	0x22, r25	; 34
    1b84:	81 bd       	out	0x21, r24	; 33
    1b86:	f8 9a       	sbi	0x1f, 0	; 31
    1b88:	01 97       	sbiw	r24, 0x01	; 1
    1b8a:	00 b4       	in	r0, 0x20	; 32
    1b8c:	02 16       	cp	r0, r18
    1b8e:	39 f0       	breq	.+14     	; 0x1b9e <eeprom_update_r18+0x20>
    1b90:	1f ba       	out	0x1f, r1	; 31
    1b92:	20 bd       	out	0x20, r18	; 32
    1b94:	0f b6       	in	r0, 0x3f	; 63
    1b96:	f8 94       	cli
    1b98:	fa 9a       	sbi	0x1f, 2	; 31
    1b9a:	f9 9a       	sbi	0x1f, 1	; 31
    1b9c:	0f be       	out	0x3f, r0	; 63
    1b9e:	08 95       	ret

00001ba0 <__prologue_saves__>:
    1ba0:	2f 92       	push	r2
    1ba2:	3f 92       	push	r3
    1ba4:	4f 92       	push	r4
    1ba6:	5f 92       	push	r5
    1ba8:	6f 92       	push	r6
    1baa:	7f 92       	push	r7
    1bac:	8f 92       	push	r8
    1bae:	9f 92       	push	r9
    1bb0:	af 92       	push	r10
    1bb2:	bf 92       	push	r11
    1bb4:	cf 92       	push	r12
    1bb6:	df 92       	push	r13
    1bb8:	ef 92       	push	r14
    1bba:	ff 92       	push	r15
    1bbc:	0f 93       	push	r16
    1bbe:	1f 93       	push	r17
    1bc0:	cf 93       	push	r28
    1bc2:	df 93       	push	r29
    1bc4:	cd b7       	in	r28, 0x3d	; 61
    1bc6:	de b7       	in	r29, 0x3e	; 62
    1bc8:	ca 1b       	sub	r28, r26
    1bca:	db 0b       	sbc	r29, r27
    1bcc:	0f b6       	in	r0, 0x3f	; 63
    1bce:	f8 94       	cli
    1bd0:	de bf       	out	0x3e, r29	; 62
    1bd2:	0f be       	out	0x3f, r0	; 63
    1bd4:	cd bf       	out	0x3d, r28	; 61
    1bd6:	09 94       	ijmp

00001bd8 <__epilogue_restores__>:
    1bd8:	2a 88       	ldd	r2, Y+18	; 0x12
    1bda:	39 88       	ldd	r3, Y+17	; 0x11
    1bdc:	48 88       	ldd	r4, Y+16	; 0x10
    1bde:	5f 84       	ldd	r5, Y+15	; 0x0f
    1be0:	6e 84       	ldd	r6, Y+14	; 0x0e
    1be2:	7d 84       	ldd	r7, Y+13	; 0x0d
    1be4:	8c 84       	ldd	r8, Y+12	; 0x0c
    1be6:	9b 84       	ldd	r9, Y+11	; 0x0b
    1be8:	aa 84       	ldd	r10, Y+10	; 0x0a
    1bea:	b9 84       	ldd	r11, Y+9	; 0x09
    1bec:	c8 84       	ldd	r12, Y+8	; 0x08
    1bee:	df 80       	ldd	r13, Y+7	; 0x07
    1bf0:	ee 80       	ldd	r14, Y+6	; 0x06
    1bf2:	fd 80       	ldd	r15, Y+5	; 0x05
    1bf4:	0c 81       	ldd	r16, Y+4	; 0x04
    1bf6:	1b 81       	ldd	r17, Y+3	; 0x03
    1bf8:	aa 81       	ldd	r26, Y+2	; 0x02
    1bfa:	b9 81       	ldd	r27, Y+1	; 0x01
    1bfc:	ce 0f       	add	r28, r30
    1bfe:	d1 1d       	adc	r29, r1
    1c00:	0f b6       	in	r0, 0x3f	; 63
    1c02:	f8 94       	cli
    1c04:	de bf       	out	0x3e, r29	; 62
    1c06:	0f be       	out	0x3f, r0	; 63
    1c08:	cd bf       	out	0x3d, r28	; 61
    1c0a:	ed 01       	movw	r28, r26
    1c0c:	08 95       	ret

00001c0e <_exit>:
    1c0e:	f8 94       	cli

00001c10 <__stop_program>:
    1c10:	ff cf       	rjmp	.-2      	; 0x1c10 <__stop_program>
